

Microchip MPLAB XC8 Assembler V2.30 build 20200825195618 
                                                                                               Wed Dec 23 20:34:42 2020

Microchip MPLAB XC8 C Compiler v2.30 (Free license) build 20200825195618 Og1 
     1                           	processor	16F886
     2                           	pagewidth 120
     3                           	opt	flic
     4                           	psect	stringtext,global,reloc=256,class=STRCODE,delta=2,noexec
     5                           	psect	cinit,global,class=CODE,merge=1,delta=2
     6                           	psect	bssCOMMON,global,class=COMMON,space=1,delta=1,noexec
     7                           	psect	bssBANK1,global,class=BANK1,space=1,delta=1,noexec
     8                           	psect	clrtext,global,class=CODE,delta=2
     9                           	psect	cstackBANK1,global,class=BANK1,space=1,delta=1,noexec
    10                           	psect	cstackCOMMON,global,class=COMMON,space=1,delta=1,noexec
    11                           	psect	cstackBANK0,global,class=BANK0,space=1,delta=1,noexec
    12                           	psect	maintext,global,class=CODE,split=1,delta=2
    13                           	psect	text1,local,class=CODE,merge=1,delta=2
    14                           	psect	text2,local,class=CODE,merge=1,delta=2
    15                           	psect	text3,local,class=CODE,merge=1,delta=2
    16                           	psect	text4,local,class=CODE,merge=1,delta=2
    17                           	psect	text5,local,class=CODE,merge=1,delta=2
    18                           	psect	text6,local,class=CODE,merge=1,delta=2
    19                           	psect	text7,local,class=CODE,merge=1,delta=2,group=2
    20                           	psect	text8,local,class=CODE,merge=1,delta=2
    21                           	psect	text9,local,class=CODE,merge=1,delta=2
    22                           	psect	text10,local,class=CODE,merge=1,delta=2
    23                           	psect	text11,local,class=CODE,merge=1,delta=2,group=2
    24                           	psect	text12,local,class=CODE,merge=1,delta=2
    25                           	psect	text13,local,class=CODE,merge=1,delta=2
    26                           	psect	text14,local,class=CODE,merge=1,delta=2
    27                           	psect	text15,local,class=CODE,merge=1,delta=2
    28                           	psect	text16,local,class=CODE,merge=1,delta=2
    29                           	psect	text17,local,class=CODE,merge=1,delta=2
    30                           	psect	text18,local,class=CODE,merge=1,delta=2
    31                           	psect	text19,local,class=CODE,merge=1,delta=2
    32                           	psect	text20,local,class=CODE,merge=1,delta=2
    33                           	psect	text21,local,class=CODE,merge=1,delta=2,group=2
    34                           	psect	text22,local,class=CODE,merge=1,delta=2
    35                           	psect	text23,local,class=CODE,merge=1,delta=2
    36                           	psect	text24,local,class=CODE,merge=1,delta=2,group=1
    37                           	psect	text25,local,class=CODE,merge=1,delta=2
    38                           	psect	text26,local,class=CODE,merge=1,delta=2,group=2
    39                           	psect	text27,local,class=CODE,merge=1,delta=2,group=2
    40                           	psect	text28,local,class=CODE,merge=1,delta=2
    41                           	psect	text29,local,class=CODE,merge=1,delta=2
    42                           	psect	text30,local,class=CODE,merge=1,delta=2,group=2
    43                           	psect	text31,local,class=CODE,merge=1,delta=2
    44                           	psect	text32,local,class=CODE,merge=1,delta=2,group=2
    45                           	psect	text33,local,class=CODE,merge=1,delta=2,group=2
    46                           	psect	text34,local,class=CODE,merge=1,delta=2,group=2
    47                           	psect	text35,local,class=CODE,merge=1,delta=2,group=2
    48                           	psect	text36,local,class=CODE,merge=1,delta=2,group=2
    49                           	psect	text37,local,class=CODE,merge=1,delta=2,group=2
    50                           	psect	text38,local,class=CODE,merge=1,delta=2
    51                           	psect	text39,local,class=CODE,merge=1,delta=2
    52                           	psect	text40,local,class=CODE,merge=1,delta=2
    53                           	psect	intentry,global,class=CODE,delta=2
    54                           	psect	text41,local,class=CODE,merge=1,delta=2,group=2
    55                           	psect	config,global,abs,ovrld,class=CONFIG,space=4,delta=2,noexec
    56                           	dabs	1,0x7E,2
    57  0000                     
    58                           ; Version 2.30
    59                           ; Generated 26/08/2020 GMT
    60                           ; 
    61                           ; Copyright Â© 2020, Microchip Technology Inc. and its subsidiaries ("Microchip")
    62                           ; All rights reserved.
    63                           ; 
    64                           ; This software is developed by Microchip Technology Inc. and its subsidiaries ("Microch
      +                          ip").
    65                           ; 
    66                           ; Redistribution and use in source and binary forms, with or without modification, are
    67                           ; permitted provided that the following conditions are met:
    68                           ; 
    69                           ;     1. Redistributions of source code must retain the above copyright notice, this lis
      +                          t of
    70                           ;        conditions and the following disclaimer.
    71                           ; 
    72                           ;     2. Redistributions in binary form must reproduce the above copyright notice, this 
      +                          list
    73                           ;        of conditions and the following disclaimer in the documentation and/or other
    74                           ;        materials provided with the distribution. Publication is not required when
    75                           ;        this file is used in an embedded application.
    76                           ; 
    77                           ;     3. Microchip's name may not be used to endorse or promote products derived from th
      +                          is
    78                           ;        software without specific prior written permission.
    79                           ; 
    80                           ; THIS SOFTWARE IS PROVIDED BY MICROCHIP "AS IS" AND ANY EXPRESS OR IMPLIED WARRANTIES,
    81                           ; INCLUDING, BUT NOT LIMITED TO, THE IMPLIED WARRANTIES OF MERCHANTABILITY AND FITNESS F
      +                          OR
    82                           ; PURPOSE ARE DISCLAIMED.  IN NO EVENT SHALL MICROCHIP BE LIABLE FOR ANY DIRECT, INDIREC
      +                          T,
    83                           ; INCIDENTAL, SPECIAL, EXEMPLARY, OR CONSEQUENTIAL DAMAGES (INCLUDING BUT NOT LIMITED TO
    84                           ; PROCUREMENT OF SUBSTITUTE GOODS OR SERVICES; LOSS OF USE, DATA OR PROFITS; OR BUSINESS
    85                           ; INTERRUPTION) HOWSOEVER CAUSED AND ON ANY THEORY OF LIABILITY, WHETHER IN CONTRACT, ST
      +                          RICT
    86                           ; LIABILITY, OR TORT (INCLUDING NEGLIGENCE OR OTHERWISE) ARISING IN ANY WAY OUT OF THE U
      +                          SE OF
    87                           ; THIS SOFTWARE, EVEN IF ADVISED OF THE POSSIBILITY OF SUCH DAMAGE.
    88                           ; 
    89                           ; 
    90                           ; Code-generator required, PIC16F886 Definitions
    91                           ; 
    92                           ; SFR Addresses
    93  0000                     	;# 
    94  0001                     	;# 
    95  0002                     	;# 
    96  0003                     	;# 
    97  0004                     	;# 
    98  0005                     	;# 
    99  0006                     	;# 
   100  0007                     	;# 
   101  0009                     	;# 
   102  000A                     	;# 
   103  000B                     	;# 
   104  000C                     	;# 
   105  000D                     	;# 
   106  000E                     	;# 
   107  000E                     	;# 
   108  000F                     	;# 
   109  0010                     	;# 
   110  0011                     	;# 
   111  0012                     	;# 
   112  0013                     	;# 
   113  0014                     	;# 
   114  0015                     	;# 
   115  0015                     	;# 
   116  0016                     	;# 
   117  0017                     	;# 
   118  0018                     	;# 
   119  0019                     	;# 
   120  001A                     	;# 
   121  001B                     	;# 
   122  001B                     	;# 
   123  001C                     	;# 
   124  001D                     	;# 
   125  001E                     	;# 
   126  001F                     	;# 
   127  0081                     	;# 
   128  0085                     	;# 
   129  0086                     	;# 
   130  0087                     	;# 
   131  0089                     	;# 
   132  008C                     	;# 
   133  008D                     	;# 
   134  008E                     	;# 
   135  008F                     	;# 
   136  0090                     	;# 
   137  0091                     	;# 
   138  0092                     	;# 
   139  0093                     	;# 
   140  0093                     	;# 
   141  0093                     	;# 
   142  0094                     	;# 
   143  0095                     	;# 
   144  0096                     	;# 
   145  0097                     	;# 
   146  0098                     	;# 
   147  0099                     	;# 
   148  009A                     	;# 
   149  009B                     	;# 
   150  009C                     	;# 
   151  009D                     	;# 
   152  009E                     	;# 
   153  009F                     	;# 
   154  0105                     	;# 
   155  0107                     	;# 
   156  0108                     	;# 
   157  0109                     	;# 
   158  010C                     	;# 
   159  010C                     	;# 
   160  010D                     	;# 
   161  010E                     	;# 
   162  010F                     	;# 
   163  0185                     	;# 
   164  0187                     	;# 
   165  0188                     	;# 
   166  0189                     	;# 
   167  018C                     	;# 
   168  018D                     	;# 
   169  0000                     	;# 
   170  0001                     	;# 
   171  0002                     	;# 
   172  0003                     	;# 
   173  0004                     	;# 
   174  0005                     	;# 
   175  0006                     	;# 
   176  0007                     	;# 
   177  0009                     	;# 
   178  000A                     	;# 
   179  000B                     	;# 
   180  000C                     	;# 
   181  000D                     	;# 
   182  000E                     	;# 
   183  000E                     	;# 
   184  000F                     	;# 
   185  0010                     	;# 
   186  0011                     	;# 
   187  0012                     	;# 
   188  0013                     	;# 
   189  0014                     	;# 
   190  0015                     	;# 
   191  0015                     	;# 
   192  0016                     	;# 
   193  0017                     	;# 
   194  0018                     	;# 
   195  0019                     	;# 
   196  001A                     	;# 
   197  001B                     	;# 
   198  001B                     	;# 
   199  001C                     	;# 
   200  001D                     	;# 
   201  001E                     	;# 
   202  001F                     	;# 
   203  0081                     	;# 
   204  0085                     	;# 
   205  0086                     	;# 
   206  0087                     	;# 
   207  0089                     	;# 
   208  008C                     	;# 
   209  008D                     	;# 
   210  008E                     	;# 
   211  008F                     	;# 
   212  0090                     	;# 
   213  0091                     	;# 
   214  0092                     	;# 
   215  0093                     	;# 
   216  0093                     	;# 
   217  0093                     	;# 
   218  0094                     	;# 
   219  0095                     	;# 
   220  0096                     	;# 
   221  0097                     	;# 
   222  0098                     	;# 
   223  0099                     	;# 
   224  009A                     	;# 
   225  009B                     	;# 
   226  009C                     	;# 
   227  009D                     	;# 
   228  009E                     	;# 
   229  009F                     	;# 
   230  0105                     	;# 
   231  0107                     	;# 
   232  0108                     	;# 
   233  0109                     	;# 
   234  010C                     	;# 
   235  010C                     	;# 
   236  010D                     	;# 
   237  010E                     	;# 
   238  010F                     	;# 
   239  0185                     	;# 
   240  0187                     	;# 
   241  0188                     	;# 
   242  0189                     	;# 
   243  018C                     	;# 
   244  018D                     	;# 
   245  0000                     	;# 
   246  0001                     	;# 
   247  0002                     	;# 
   248  0003                     	;# 
   249  0004                     	;# 
   250  0005                     	;# 
   251  0006                     	;# 
   252  0007                     	;# 
   253  0009                     	;# 
   254  000A                     	;# 
   255  000B                     	;# 
   256  000C                     	;# 
   257  000D                     	;# 
   258  000E                     	;# 
   259  000E                     	;# 
   260  000F                     	;# 
   261  0010                     	;# 
   262  0011                     	;# 
   263  0012                     	;# 
   264  0013                     	;# 
   265  0014                     	;# 
   266  0015                     	;# 
   267  0015                     	;# 
   268  0016                     	;# 
   269  0017                     	;# 
   270  0018                     	;# 
   271  0019                     	;# 
   272  001A                     	;# 
   273  001B                     	;# 
   274  001B                     	;# 
   275  001C                     	;# 
   276  001D                     	;# 
   277  001E                     	;# 
   278  001F                     	;# 
   279  0081                     	;# 
   280  0085                     	;# 
   281  0086                     	;# 
   282  0087                     	;# 
   283  0089                     	;# 
   284  008C                     	;# 
   285  008D                     	;# 
   286  008E                     	;# 
   287  008F                     	;# 
   288  0090                     	;# 
   289  0091                     	;# 
   290  0092                     	;# 
   291  0093                     	;# 
   292  0093                     	;# 
   293  0093                     	;# 
   294  0094                     	;# 
   295  0095                     	;# 
   296  0096                     	;# 
   297  0097                     	;# 
   298  0098                     	;# 
   299  0099                     	;# 
   300  009A                     	;# 
   301  009B                     	;# 
   302  009C                     	;# 
   303  009D                     	;# 
   304  009E                     	;# 
   305  009F                     	;# 
   306  0105                     	;# 
   307  0107                     	;# 
   308  0108                     	;# 
   309  0109                     	;# 
   310  010C                     	;# 
   311  010C                     	;# 
   312  010D                     	;# 
   313  010E                     	;# 
   314  010F                     	;# 
   315  0185                     	;# 
   316  0187                     	;# 
   317  0188                     	;# 
   318  0189                     	;# 
   319  018C                     	;# 
   320  018D                     	;# 
   321  0000                     	;# 
   322  0001                     	;# 
   323  0002                     	;# 
   324  0003                     	;# 
   325  0004                     	;# 
   326  0005                     	;# 
   327  0006                     	;# 
   328  0007                     	;# 
   329  0009                     	;# 
   330  000A                     	;# 
   331  000B                     	;# 
   332  000C                     	;# 
   333  000D                     	;# 
   334  000E                     	;# 
   335  000E                     	;# 
   336  000F                     	;# 
   337  0010                     	;# 
   338  0011                     	;# 
   339  0012                     	;# 
   340  0013                     	;# 
   341  0014                     	;# 
   342  0015                     	;# 
   343  0015                     	;# 
   344  0016                     	;# 
   345  0017                     	;# 
   346  0018                     	;# 
   347  0019                     	;# 
   348  001A                     	;# 
   349  001B                     	;# 
   350  001B                     	;# 
   351  001C                     	;# 
   352  001D                     	;# 
   353  001E                     	;# 
   354  001F                     	;# 
   355  0081                     	;# 
   356  0085                     	;# 
   357  0086                     	;# 
   358  0087                     	;# 
   359  0089                     	;# 
   360  008C                     	;# 
   361  008D                     	;# 
   362  008E                     	;# 
   363  008F                     	;# 
   364  0090                     	;# 
   365  0091                     	;# 
   366  0092                     	;# 
   367  0093                     	;# 
   368  0093                     	;# 
   369  0093                     	;# 
   370  0094                     	;# 
   371  0095                     	;# 
   372  0096                     	;# 
   373  0097                     	;# 
   374  0098                     	;# 
   375  0099                     	;# 
   376  009A                     	;# 
   377  009B                     	;# 
   378  009C                     	;# 
   379  009D                     	;# 
   380  009E                     	;# 
   381  009F                     	;# 
   382  0105                     	;# 
   383  0107                     	;# 
   384  0108                     	;# 
   385  0109                     	;# 
   386  010C                     	;# 
   387  010C                     	;# 
   388  010D                     	;# 
   389  010E                     	;# 
   390  010F                     	;# 
   391  0185                     	;# 
   392  0187                     	;# 
   393  0188                     	;# 
   394  0189                     	;# 
   395  018C                     	;# 
   396  018D                     	;# 
   397  0000                     	;# 
   398  0001                     	;# 
   399  0002                     	;# 
   400  0003                     	;# 
   401  0004                     	;# 
   402  0005                     	;# 
   403  0006                     	;# 
   404  0007                     	;# 
   405  0009                     	;# 
   406  000A                     	;# 
   407  000B                     	;# 
   408  000C                     	;# 
   409  000D                     	;# 
   410  000E                     	;# 
   411  000E                     	;# 
   412  000F                     	;# 
   413  0010                     	;# 
   414  0011                     	;# 
   415  0012                     	;# 
   416  0013                     	;# 
   417  0014                     	;# 
   418  0015                     	;# 
   419  0015                     	;# 
   420  0016                     	;# 
   421  0017                     	;# 
   422  0018                     	;# 
   423  0019                     	;# 
   424  001A                     	;# 
   425  001B                     	;# 
   426  001B                     	;# 
   427  001C                     	;# 
   428  001D                     	;# 
   429  001E                     	;# 
   430  001F                     	;# 
   431  0081                     	;# 
   432  0085                     	;# 
   433  0086                     	;# 
   434  0087                     	;# 
   435  0089                     	;# 
   436  008C                     	;# 
   437  008D                     	;# 
   438  008E                     	;# 
   439  008F                     	;# 
   440  0090                     	;# 
   441  0091                     	;# 
   442  0092                     	;# 
   443  0093                     	;# 
   444  0093                     	;# 
   445  0093                     	;# 
   446  0094                     	;# 
   447  0095                     	;# 
   448  0096                     	;# 
   449  0097                     	;# 
   450  0098                     	;# 
   451  0099                     	;# 
   452  009A                     	;# 
   453  009B                     	;# 
   454  009C                     	;# 
   455  009D                     	;# 
   456  009E                     	;# 
   457  009F                     	;# 
   458  0105                     	;# 
   459  0107                     	;# 
   460  0108                     	;# 
   461  0109                     	;# 
   462  010C                     	;# 
   463  010C                     	;# 
   464  010D                     	;# 
   465  010E                     	;# 
   466  010F                     	;# 
   467  0185                     	;# 
   468  0187                     	;# 
   469  0188                     	;# 
   470  0189                     	;# 
   471  018C                     	;# 
   472  018D                     	;# 
   473                           
   474                           	psect	stringtext
   475  0100                     __pstringtext:
   476  0100                     stringtab:
   477  0100                     __stringtab:
   478                           
   479                           ;	String table - string pointers are 2 bytes each
   480  0100  1BFF               	btfsc	btemp+1,7
   481  0101  290A               	ljmp	stringcode
   482  0102  1383               	bcf	3,7
   483  0103  187F               	btfsc	btemp+1,0
   484  0104  1783               	bsf	3,7
   485  0105  0800               	movf	0,w
   486  0106  0A84               	incf	4,f
   487  0107  1903               	skipnz
   488  0108  0AFF               	incf	btemp+1,f
   489  0109  0008               	return
   490  010A                     stringcode:
   491  010A  087F               	movf	btemp+1,w
   492  010B  397F               	andlw	127
   493  010C  008A               	movwf	10
   494  010D  0804               	movf	4,w
   495  010E  0A84               	incf	4,f
   496  010F  1903               	skipnz
   497  0110  0AFF               	incf	btemp+1,f
   498  0111  0082               	movwf	2
   499  0112                     __stringbase:
   500  0112                     __end_of__stringtab:
   501  0112                     _dpowers:
   502  0112  3401               	retlw	1
   503  0113  3400               	retlw	0
   504  0114  340A               	retlw	10
   505  0115  3400               	retlw	0
   506  0116  3464               	retlw	100
   507  0117  3400               	retlw	0
   508  0118  34E8               	retlw	232
   509  0119  3403               	retlw	3
   510  011A  3410               	retlw	16
   511  011B  3427               	retlw	39
   512  011C                     __end_of_dpowers:
   513  000C                     _PIR1bits	set	12
   514  000B                     _INTCONbits	set	11
   515  0001                     _TMR0	set	1
   516  0006                     _PORTBbits	set	6
   517  0007                     _PORTCbits	set	7
   518  0015                     _CCPR1L	set	21
   519  0012                     _T2CONbits	set	18
   520  0017                     _CCP1CONbits	set	23
   521  0019                     _TXREG	set	25
   522  0018                     _RCSTAbits	set	24
   523  001E                     _ADRESH	set	30
   524  001F                     _ADCON0bits	set	31
   525  0064                     _TXIF	set	100
   526  008F                     _OSCCON	set	143
   527  0081                     _OPTION_REGbits	set	129
   528  0087                     _TRISC	set	135
   529  0087                     _TRISCbits	set	135
   530  0092                     _PR2	set	146
   531  0099                     _SPBRG	set	153
   532  009A                     _SPBRGH	set	154
   533  0098                     _TXSTAbits	set	152
   534  009E                     _ADRESL	set	158
   535  009F                     _ADCON1bits	set	159
   536  008C                     _PIE1bits	set	140
   537  0086                     _TRISBbits	set	134
   538  0187                     _BAUDCTLbits	set	391
   539  0189                     _ANSELHbits	set	393
   540  011C                     STR_6:
   541  011C  340D               	retlw	13
   542  011D  340A               	retlw	10
   543  011E  3442               	retlw	66	;'B'
   544  011F  3469               	retlw	105	;'i'
   545  0120  3465               	retlw	101	;'e'
   546  0121  346E               	retlw	110	;'n'
   547  0122  3476               	retlw	118	;'v'
   548  0123  3465               	retlw	101	;'e'
   549  0124  346E               	retlw	110	;'n'
   550  0125  3469               	retlw	105	;'i'
   551  0126  3464               	retlw	100	;'d'
   552  0127  346F               	retlw	111	;'o'
   553  0128  3473               	retlw	115	;'s'
   554  0129  3420               	retlw	32	;' '
   555  012A  3461               	retlw	97	;'a'
   556  012B  346C               	retlw	108	;'l'
   557  012C  3420               	retlw	32	;' '
   558  012D  3473               	retlw	115	;'s'
   559  012E  3469               	retlw	105	;'i'
   560  012F  3473               	retlw	115	;'s'
   561  0130  3474               	retlw	116	;'t'
   562  0131  3465               	retlw	101	;'e'
   563  0132  346D               	retlw	109	;'m'
   564  0133  3461               	retlw	97	;'a'
   565  0134  3420               	retlw	32	;' '
   566  0135  3464               	retlw	100	;'d'
   567  0136  3465               	retlw	101	;'e'
   568  0137  3420               	retlw	32	;' '
   569  0138  3443               	retlw	67	;'C'
   570  0139  346F               	retlw	111	;'o'
   571  013A  346E               	retlw	110	;'n'
   572  013B  3474               	retlw	116	;'t'
   573  013C  3472               	retlw	114	;'r'
   574  013D  346F               	retlw	111	;'o'
   575  013E  346C               	retlw	108	;'l'
   576  013F  3420               	retlw	32	;' '
   577  0140  3479               	retlw	121	;'y'
   578  0141  3420               	retlw	32	;' '
   579  0142  344D               	retlw	77	;'M'
   580  0143  346F               	retlw	111	;'o'
   581  0144  346E               	retlw	110	;'n'
   582  0145  3469               	retlw	105	;'i'
   583  0146  3474               	retlw	116	;'t'
   584  0147  346F               	retlw	111	;'o'
   585  0148  3472               	retlw	114	;'r'
   586  0149  3469               	retlw	105	;'i'
   587  014A  347A               	retlw	122	;'z'
   588  014B  3461               	retlw	97	;'a'
   589  014C  3463               	retlw	99	;'c'
   590  014D  3469               	retlw	105	;'i'
   591  014E  346F               	retlw	111	;'o'
   592  014F  346E               	retlw	110	;'n'
   593  0150  3420               	retlw	32	;' '
   594  0151  3464               	retlw	100	;'d'
   595  0152  3465               	retlw	101	;'e'
   596  0153  346C               	retlw	108	;'l'
   597  0154  3420               	retlw	32	;' '
   598  0155  3448               	retlw	72	;'H'
   599  0156  346F               	retlw	111	;'o'
   600  0157  3472               	retlw	114	;'r'
   601  0158  346E               	retlw	110	;'n'
   602  0159  346F               	retlw	111	;'o'
   603  015A  340D               	retlw	13
   604  015B  340A               	retlw	10
   605  015C  3400               	retlw	0
   606  015D                     STR_7:
   607  015D  340D               	retlw	13
   608  015E  340A               	retlw	10
   609  015F  342D               	retlw	45	;'-'
   610  0160  342D               	retlw	45	;'-'
   611  0161  342D               	retlw	45	;'-'
   612  0162  342D               	retlw	45	;'-'
   613  0163  342D               	retlw	45	;'-'
   614  0164  342D               	retlw	45	;'-'
   615  0165  343E               	retlw	62	;'>'
   616  0166  3420               	retlw	32	;' '
   617  0167  3443               	retlw	67	;'C'
   618  0168  346F               	retlw	111	;'o'
   619  0169  346E               	retlw	110	;'n'
   620  016A  3473               	retlw	115	;'s'
   621  016B  3469               	retlw	105	;'i'
   622  016C  3467               	retlw	103	;'g'
   623  016D  346E               	retlw	110	;'n'
   624  016E  3461               	retlw	97	;'a'
   625  016F  3420               	retlw	32	;' '
   626  0170  346F               	retlw	111	;'o'
   627  0171  3420               	retlw	32	;' '
   628  0172  3454               	retlw	84	;'T'
   629  0173  3465               	retlw	101	;'e'
   630  0174  346D               	retlw	109	;'m'
   631  0175  3470               	retlw	112	;'p'
   632  0176  3465               	retlw	101	;'e'
   633  0177  3472               	retlw	114	;'r'
   634  0178  3461               	retlw	97	;'a'
   635  0179  3474               	retlw	116	;'t'
   636  017A  3475               	retlw	117	;'u'
   637  017B  3472               	retlw	114	;'r'
   638  017C  3461               	retlw	97	;'a'
   639  017D  3420               	retlw	32	;' '
   640  017E  344F               	retlw	79	;'O'
   641  017F  3462               	retlw	98	;'b'
   642  0180  346A               	retlw	106	;'j'
   643  0181  3465               	retlw	101	;'e'
   644  0182  3474               	retlw	116	;'t'
   645  0183  3469               	retlw	105	;'i'
   646  0184  3476               	retlw	118	;'v'
   647  0185  346F               	retlw	111	;'o'
   648  0186  343A               	retlw	58	;':'
   649  0187  3420               	retlw	32	;' '
   650  0188  3425               	retlw	37	;'%'
   651  0189  3464               	retlw	100	;'d'
   652  018A  34BA               	retlw	-70
   653  018B  340D               	retlw	13
   654  018C  340A               	retlw	10
   655  018D  3400               	retlw	0
   656  018E                     STR_18:
   657  018E  342D               	retlw	45	;'-'
   658  018F  342D               	retlw	45	;'-'
   659  0190  342D               	retlw	45	;'-'
   660  0191  3445               	retlw	69	;'E'
   661  0192  3473               	retlw	115	;'s'
   662  0193  3474               	retlw	116	;'t'
   663  0194  3461               	retlw	97	;'a'
   664  0195  3464               	retlw	100	;'d'
   665  0196  346F               	retlw	111	;'o'
   666  0197  3420               	retlw	32	;' '
   667  0198  3441               	retlw	65	;'A'
   668  0199  3470               	retlw	112	;'p'
   669  019A  3461               	retlw	97	;'a'
   670  019B  3467               	retlw	103	;'g'
   671  019C  3461               	retlw	97	;'a'
   672  019D  346E               	retlw	110	;'n'
   673  019E  3464               	retlw	100	;'d'
   674  019F  346F               	retlw	111	;'o'
   675  01A0  3420               	retlw	32	;' '
   676  01A1  3465               	retlw	101	;'e'
   677  01A2  346C               	retlw	108	;'l'
   678  01A3  3420               	retlw	32	;' '
   679  01A4  3448               	retlw	72	;'H'
   680  01A5  346F               	retlw	111	;'o'
   681  01A6  3472               	retlw	114	;'r'
   682  01A7  346E               	retlw	110	;'n'
   683  01A8  346F               	retlw	111	;'o'
   684  01A9  342E               	retlw	46	;'.'
   685  01AA  342E               	retlw	46	;'.'
   686  01AB  342E               	retlw	46	;'.'
   687  01AC  342D               	retlw	45	;'-'
   688  01AD  342D               	retlw	45	;'-'
   689  01AE  342D               	retlw	45	;'-'
   690  01AF  340A               	retlw	10
   691  01B0  3400               	retlw	0
   692  01B1                     STR_13:
   693  01B1  3456               	retlw	86	;'V'
   694  01B2  3465               	retlw	101	;'e'
   695  01B3  346C               	retlw	108	;'l'
   696  01B4  346F               	retlw	111	;'o'
   697  01B5  3463               	retlw	99	;'c'
   698  01B6  3469               	retlw	105	;'i'
   699  01B7  3464               	retlw	100	;'d'
   700  01B8  3461               	retlw	97	;'a'
   701  01B9  3464               	retlw	100	;'d'
   702  01BA  3420               	retlw	32	;' '
   703  01BB  3464               	retlw	100	;'d'
   704  01BC  3465               	retlw	101	;'e'
   705  01BD  346C               	retlw	108	;'l'
   706  01BE  3420               	retlw	32	;' '
   707  01BF  3476               	retlw	118	;'v'
   708  01C0  3465               	retlw	101	;'e'
   709  01C1  346E               	retlw	110	;'n'
   710  01C2  3474               	retlw	116	;'t'
   711  01C3  3469               	retlw	105	;'i'
   712  01C4  346C               	retlw	108	;'l'
   713  01C5  3461               	retlw	97	;'a'
   714  01C6  3464               	retlw	100	;'d'
   715  01C7  346F               	retlw	111	;'o'
   716  01C8  3472               	retlw	114	;'r'
   717  01C9  3420               	retlw	32	;' '
   718  01CA  3425               	retlw	37	;'%'
   719  01CB  3464               	retlw	100	;'d'
   720  01CC  3425               	retlw	37	;'%'
   721  01CD  3425               	retlw	37	;'%'
   722  01CE  340D               	retlw	13
   723  01CF  340A               	retlw	10
   724  01D0  3400               	retlw	0
   725  01D1                     STR_5:
   726  01D1  3420               	retlw	32	;' '
   727  01D2  3454               	retlw	84	;'T'
   728  01D3  3465               	retlw	101	;'e'
   729  01D4  346D               	retlw	109	;'m'
   730  01D5  3470               	retlw	112	;'p'
   731  01D6  3465               	retlw	101	;'e'
   732  01D7  3472               	retlw	114	;'r'
   733  01D8  3461               	retlw	97	;'a'
   734  01D9  3474               	retlw	116	;'t'
   735  01DA  3475               	retlw	117	;'u'
   736  01DB  3472               	retlw	114	;'r'
   737  01DC  3461               	retlw	97	;'a'
   738  01DD  3420               	retlw	32	;' '
   739  01DE  346F               	retlw	111	;'o'
   740  01DF  3462               	retlw	98	;'b'
   741  01E0  346A               	retlw	106	;'j'
   742  01E1  3465               	retlw	101	;'e'
   743  01E2  3474               	retlw	116	;'t'
   744  01E3  3469               	retlw	105	;'i'
   745  01E4  3476               	retlw	118	;'v'
   746  01E5  346F               	retlw	111	;'o'
   747  01E6  343A               	retlw	58	;':'
   748  01E7  3420               	retlw	32	;' '
   749  01E8  3425               	retlw	37	;'%'
   750  01E9  3464               	retlw	100	;'d'
   751  01EA  3420               	retlw	32	;' '
   752  01EB  340D               	retlw	13
   753  01EC  340A               	retlw	10
   754  01ED  3400               	retlw	0
   755  01EE                     STR_16:
   756  01EE  3444               	retlw	68	;'D'
   757  01EF  3465               	retlw	101	;'e'
   758  01F0  346C               	retlw	108	;'l'
   759  01F1  3461               	retlw	97	;'a'
   760  01F2  3479               	retlw	121	;'y'
   761  01F3  3420               	retlw	32	;' '
   762  01F4  3469               	retlw	105	;'i'
   763  01F5  346E               	retlw	110	;'n'
   764  01F6  3469               	retlw	105	;'i'
   765  01F7  3463               	retlw	99	;'c'
   766  01F8  3469               	retlw	105	;'i'
   767  01F9  3461               	retlw	97	;'a'
   768  01FA  346C               	retlw	108	;'l'
   769  01FB  3420               	retlw	32	;' '
   770  01FC  3464               	retlw	100	;'d'
   771  01FD  3465               	retlw	101	;'e'
   772  01FE  3420               	retlw	32	;' '
   773  01FF  3433               	retlw	51	;'3'
   774  0200  3420               	retlw	32	;' '
   775  0201  3473               	retlw	115	;'s'
   776  0202  3465               	retlw	101	;'e'
   777  0203  3467               	retlw	103	;'g'
   778  0204  3475               	retlw	117	;'u'
   779  0205  346E               	retlw	110	;'n'
   780  0206  3464               	retlw	100	;'d'
   781  0207  3473               	retlw	115	;'s'
   782  0208  340A               	retlw	10
   783  0209  3400               	retlw	0
   784  020A                     STR_9:
   785  020A  3454               	retlw	84	;'T'
   786  020B  3465               	retlw	101	;'e'
   787  020C  346D               	retlw	109	;'m'
   788  020D  3470               	retlw	112	;'p'
   789  020E  3465               	retlw	101	;'e'
   790  020F  3472               	retlw	114	;'r'
   791  0210  3461               	retlw	97	;'a'
   792  0211  3474               	retlw	116	;'t'
   793  0212  3475               	retlw	117	;'u'
   794  0213  3472               	retlw	114	;'r'
   795  0214  3461               	retlw	97	;'a'
   796  0215  3420               	retlw	32	;' '
   797  0216  3469               	retlw	105	;'i'
   798  0217  346E               	retlw	110	;'n'
   799  0218  3474               	retlw	116	;'t'
   800  0219  3465               	retlw	101	;'e'
   801  021A  3472               	retlw	114	;'r'
   802  021B  3469               	retlw	105	;'i'
   803  021C  346F               	retlw	111	;'o'
   804  021D  3472               	retlw	114	;'r'
   805  021E  3420               	retlw	32	;' '
   806  021F  3425               	retlw	37	;'%'
   807  0220  3464               	retlw	100	;'d'
   808  0221  34BA               	retlw	-70
   809  0222  3420               	retlw	32	;' '
   810  0223  340D               	retlw	13
   811  0224  340A               	retlw	10
   812  0225  3400               	retlw	0
   813  0226                     STR_10:
   814  0226  3454               	retlw	84	;'T'
   815  0227  3465               	retlw	101	;'e'
   816  0228  346D               	retlw	109	;'m'
   817  0229  3470               	retlw	112	;'p'
   818  022A  3465               	retlw	101	;'e'
   819  022B  3472               	retlw	114	;'r'
   820  022C  3461               	retlw	97	;'a'
   821  022D  3474               	retlw	116	;'t'
   822  022E  3475               	retlw	117	;'u'
   823  022F  3472               	retlw	114	;'r'
   824  0230  3461               	retlw	97	;'a'
   825  0231  3420               	retlw	32	;' '
   826  0232  3465               	retlw	101	;'e'
   827  0233  3478               	retlw	120	;'x'
   828  0234  3474               	retlw	116	;'t'
   829  0235  3465               	retlw	101	;'e'
   830  0236  3472               	retlw	114	;'r'
   831  0237  3469               	retlw	105	;'i'
   832  0238  346F               	retlw	111	;'o'
   833  0239  3472               	retlw	114	;'r'
   834  023A  3420               	retlw	32	;' '
   835  023B  3425               	retlw	37	;'%'
   836  023C  3464               	retlw	100	;'d'
   837  023D  34BA               	retlw	-70
   838  023E  3420               	retlw	32	;' '
   839  023F  340D               	retlw	13
   840  0240  340A               	retlw	10
   841  0241  3400               	retlw	0
   842  0242                     STR_12:
   843  0242  3449               	retlw	73	;'I'
   844  0243  346E               	retlw	110	;'n'
   845  0244  3474               	retlw	116	;'t'
   846  0245  3465               	retlw	101	;'e'
   847  0246  346E               	retlw	110	;'n'
   848  0247  3473               	retlw	115	;'s'
   849  0248  3469               	retlw	105	;'i'
   850  0249  3464               	retlw	100	;'d'
   851  024A  3461               	retlw	97	;'a'
   852  024B  3464               	retlw	100	;'d'
   853  024C  3420               	retlw	32	;' '
   854  024D  346C               	retlw	108	;'l'
   855  024E  3475               	retlw	117	;'u'
   856  024F  346D               	retlw	109	;'m'
   857  0250  3469               	retlw	105	;'i'
   858  0251  346E               	retlw	110	;'n'
   859  0252  346F               	retlw	111	;'o'
   860  0253  3473               	retlw	115	;'s'
   861  0254  3461               	retlw	97	;'a'
   862  0255  3420               	retlw	32	;' '
   863  0256  3425               	retlw	37	;'%'
   864  0257  3464               	retlw	100	;'d'
   865  0258  3420               	retlw	32	;' '
   866  0259  346C               	retlw	108	;'l'
   867  025A  346D               	retlw	109	;'m'
   868  025B  340D               	retlw	13
   869  025C  340A               	retlw	10
   870  025D  3400               	retlw	0
   871  025E                     STR_1:
   872  025E  3454               	retlw	84	;'T'
   873  025F  3465               	retlw	101	;'e'
   874  0260  346D               	retlw	109	;'m'
   875  0261  3470               	retlw	112	;'p'
   876  0262  3465               	retlw	101	;'e'
   877  0263  3472               	retlw	114	;'r'
   878  0264  3461               	retlw	97	;'a'
   879  0265  3474               	retlw	116	;'t'
   880  0266  3475               	retlw	117	;'u'
   881  0267  3472               	retlw	114	;'r'
   882  0268  3461               	retlw	97	;'a'
   883  0269  3420               	retlw	32	;' '
   884  026A  3445               	retlw	69	;'E'
   885  026B  3478               	retlw	120	;'x'
   886  026C  3474               	retlw	116	;'t'
   887  026D  3465               	retlw	101	;'e'
   888  026E  3472               	retlw	114	;'r'
   889  026F  3469               	retlw	105	;'i'
   890  0270  346F               	retlw	111	;'o'
   891  0271  3472               	retlw	114	;'r'
   892  0272  343A               	retlw	58	;':'
   893  0273  3420               	retlw	32	;' '
   894  0274  3425               	retlw	37	;'%'
   895  0275  3464               	retlw	100	;'d'
   896  0276  3420               	retlw	32	;' '
   897  0277  340D               	retlw	13
   898  0278  340A               	retlw	10
   899  0279  3400               	retlw	0
   900  027A                     STR_3:
   901  027A  346C               	retlw	108	;'l'
   902  027B  3465               	retlw	101	;'e'
   903  027C  3463               	retlw	99	;'c'
   904  027D  3474               	retlw	116	;'t'
   905  027E  3475               	retlw	117	;'u'
   906  027F  3472               	retlw	114	;'r'
   907  0280  3461               	retlw	97	;'a'
   908  0281  3420               	retlw	32	;' '
   909  0282  3461               	retlw	97	;'a'
   910  0283  346E               	retlw	110	;'n'
   911  0284  3461               	retlw	97	;'a'
   912  0285  346C               	retlw	108	;'l'
   913  0286  346F               	retlw	111	;'o'
   914  0287  3467               	retlw	103	;'g'
   915  0288  3469               	retlw	105	;'i'
   916  0289  3463               	retlw	99	;'c'
   917  028A  3461               	retlw	97	;'a'
   918  028B  343A               	retlw	58	;':'
   919  028C  3420               	retlw	32	;' '
   920  028D  3425               	retlw	37	;'%'
   921  028E  3464               	retlw	100	;'d'
   922  028F  3420               	retlw	32	;' '
   923  0290  340D               	retlw	13
   924  0291  340A               	retlw	10
   925  0292  3400               	retlw	0
   926  0293                     STR_17:
   927  0293  342D               	retlw	45	;'-'
   928  0294  342D               	retlw	45	;'-'
   929  0295  342D               	retlw	45	;'-'
   930  0296  3450               	retlw	80	;'P'
   931  0297  346F               	retlw	111	;'o'
   932  0298  3474               	retlw	116	;'t'
   933  0299  3465               	retlw	101	;'e'
   934  029A  346E               	retlw	110	;'n'
   935  029B  3463               	retlw	99	;'c'
   936  029C  3469               	retlw	105	;'i'
   937  029D  346F               	retlw	111	;'o'
   938  029E  346D               	retlw	109	;'m'
   939  029F  3465               	retlw	101	;'e'
   940  02A0  3474               	retlw	116	;'t'
   941  02A1  3472               	retlw	114	;'r'
   942  02A2  346F               	retlw	111	;'o'
   943  02A3  342D               	retlw	45	;'-'
   944  02A4  342D               	retlw	45	;'-'
   945  02A5  342D               	retlw	45	;'-'
   946  02A6  340A               	retlw	10
   947  02A7  3400               	retlw	0
   948  02A8                     STR_4:
   949  02A8  344C               	retlw	76	;'L'
   950  02A9  3475               	retlw	117	;'u'
   951  02AA  346D               	retlw	109	;'m'
   952  02AB  3469               	retlw	105	;'i'
   953  02AC  346E               	retlw	110	;'n'
   954  02AD  346F               	retlw	111	;'o'
   955  02AE  3473               	retlw	115	;'s'
   956  02AF  3469               	retlw	105	;'i'
   957  02B0  3464               	retlw	100	;'d'
   958  02B1  3461               	retlw	97	;'a'
   959  02B2  3464               	retlw	100	;'d'
   960  02B3  343A               	retlw	58	;':'
   961  02B4  3420               	retlw	32	;' '
   962  02B5  3425               	retlw	37	;'%'
   963  02B6  3464               	retlw	100	;'d'
   964  02B7  3420               	retlw	32	;' '
   965  02B8  340D               	retlw	13
   966  02B9  340A               	retlw	10
   967  02BA  3400               	retlw	0
   968  02BB                     STR_14:
   969  02BB  3441               	retlw	65	;'A'
   970  02BC  3470               	retlw	112	;'p'
   971  02BD  3461               	retlw	97	;'a'
   972  02BE  3467               	retlw	103	;'g'
   973  02BF  3461               	retlw	97	;'a'
   974  02C0  346E               	retlw	110	;'n'
   975  02C1  3464               	retlw	100	;'d'
   976  02C2  346F               	retlw	111	;'o'
   977  02C3  3420               	retlw	32	;' '
   978  02C4  3448               	retlw	72	;'H'
   979  02C5  346F               	retlw	111	;'o'
   980  02C6  3472               	retlw	114	;'r'
   981  02C7  346E               	retlw	110	;'n'
   982  02C8  346F               	retlw	111	;'o'
   983  02C9  342E               	retlw	46	;'.'
   984  02CA  342E               	retlw	46	;'.'
   985  02CB  342E               	retlw	46	;'.'
   986  02CC  3400               	retlw	0
   987  02CD                     STR_11:
   988  02CD  3448               	retlw	72	;'H'
   989  02CE  3475               	retlw	117	;'u'
   990  02CF  346D               	retlw	109	;'m'
   991  02D0  3465               	retlw	101	;'e'
   992  02D1  3464               	retlw	100	;'d'
   993  02D2  3461               	retlw	97	;'a'
   994  02D3  3464               	retlw	100	;'d'
   995  02D4  3420               	retlw	32	;' '
   996  02D5  3425               	retlw	37	;'%'
   997  02D6  3464               	retlw	100	;'d'
   998  02D7  3425               	retlw	37	;'%'
   999  02D8  3425               	retlw	37	;'%'
  1000  02D9  3420               	retlw	32	;' '
  1001  02DA  340D               	retlw	13
  1002  02DB  340A               	retlw	10
  1003  02DC  3400               	retlw	0
  1004  02DD                     STR_2:
  1005  02DD  3448               	retlw	72	;'H'
  1006  02DE  3475               	retlw	117	;'u'
  1007  02DF  346D               	retlw	109	;'m'
  1008  02E0  3465               	retlw	101	;'e'
  1009  02E1  3464               	retlw	100	;'d'
  1010  02E2  3461               	retlw	97	;'a'
  1011  02E3  3464               	retlw	100	;'d'
  1012  02E4  343A               	retlw	58	;':'
  1013  02E5  3420               	retlw	32	;' '
  1014  02E6  3425               	retlw	37	;'%'
  1015  02E7  3464               	retlw	100	;'d'
  1016  02E8  3420               	retlw	32	;' '
  1017  02E9  340D               	retlw	13
  1018  02EA  340A               	retlw	10
  1019  02EB  3400               	retlw	0
  1020  02EC                     STR_15:
  1021  02EC  342D               	retlw	45	;'-'
  1022  02ED  342D               	retlw	45	;'-'
  1023  02EE  342D               	retlw	45	;'-'
  1024  02EF  3453               	retlw	83	;'S'
  1025  02F0  3465               	retlw	101	;'e'
  1026  02F1  3474               	retlw	116	;'t'
  1027  02F2  3420               	retlw	32	;' '
  1028  02F3  3455               	retlw	85	;'U'
  1029  02F4  3450               	retlw	80	;'P'
  1030  02F5  342D               	retlw	45	;'-'
  1031  02F6  342D               	retlw	45	;'-'
  1032  02F7  342D               	retlw	45	;'-'
  1033  02F8  340A               	retlw	10
  1034  02F9  3400               	retlw	0
  1035  02FA                     STR_8:
  1036  02FA  340D               	retlw	13
  1037  02FB  340A               	retlw	10
  1038  02FC  3444               	retlw	68	;'D'
  1039  02FD  3461               	retlw	97	;'a'
  1040  02FE  3474               	retlw	116	;'t'
  1041  02FF  346F               	retlw	111	;'o'
  1042  0300  3473               	retlw	115	;'s'
  1043  0301  343A               	retlw	58	;':'
  1044  0302  340D               	retlw	13
  1045  0303  340A               	retlw	10
  1046  0304  3400               	retlw	0
  1047                           
  1048                           	psect	cinit
  1049  000F                     start_initialization:	
  1050                           ; #config settings
  1051                           
  1052  000F                     __initialization:
  1053                           
  1054                           ; Clear objects allocated to COMMON
  1055  000F  01FA               	clrf	__pbssCOMMON& (0+127)
  1056  0010  01FB               	clrf	(__pbssCOMMON+1)& (0+127)
  1057  0011  01FC               	clrf	(__pbssCOMMON+2)& (0+127)
  1058  0012  01FD               	clrf	(__pbssCOMMON+3)& (0+127)
  1059                           
  1060                           ; Clear objects allocated to BANK1
  1061  0013  1383               	bcf	3,7	;select IRP bank0
  1062  0014  30A0               	movlw	low __pbssBANK1
  1063  0015  0084               	movwf	4
  1064  0016  30C2               	movlw	low (__pbssBANK1+34)
  1065  0017  160A  118A  24C0  120A  118A  	fcall	clear_ram0
  1066  001C                     end_of_initialization:	
  1067                           ;End of C runtime variable initialization code
  1068                           
  1069  001C                     __end_of__initialization:
  1070  001C  0183               	clrf	3
  1071  001D  120A  158A  2EE8   	ljmp	_main	;jump to C main() function
  1072                           
  1073                           	psect	bssCOMMON
  1074  007A                     __pbssCOMMON:
  1075  007A                     _cont:
  1076  007A                     	ds	2
  1077  007C                     _tempObjetivo:
  1078  007C                     	ds	2
  1079                           
  1080                           	psect	bssBANK1
  1081  00A0                     __pbssBANK1:
  1082  00A0                     _potenciometro:
  1083  00A0                     	ds	3
  1084  00A3                     _errorMaximo:
  1085  00A3                     	ds	3
  1086  00A6                     _vent:
  1087  00A6                     	ds	3
  1088  00A9                     _lastPotenciometro:
  1089  00A9                     	ds	3
  1090  00AC                     _tempObj:
  1091  00AC                     	ds	2
  1092  00AE                     _tempInt:
  1093  00AE                     	ds	2
  1094  00B0                     _ADCready:
  1095  00B0                     	ds	2
  1096  00B2                     _numeroLecturas:
  1097  00B2                     	ds	2
  1098  00B4                     _sumaLecturas:
  1099  00B4                     	ds	2
  1100  00B6                     _lum:
  1101  00B6                     	ds	2
  1102  00B8                     _humedad:
  1103  00B8                     	ds	2
  1104  00BA                     _tempext:
  1105  00BA                     	ds	2
  1106  00BC                     _tempint:
  1107  00BC                     	ds	2
  1108  00BE                     _estadoInterrupcion:
  1109  00BE                     	ds	1
  1110  00BF                     _estadoActual:
  1111  00BF                     	ds	1
  1112  00C0                     _diferencia:
  1113  00C0                     	ds	2
  1114                           
  1115                           	psect	clrtext
  1116  14C0                     clear_ram0:	
  1117                           ;	Called with FSR containing the base address, and
  1118                           ;	W with the last address+1
  1119                           
  1120  14C0  0064               	clrwdt	;clear the watchdog before getting into this loop
  1121  14C1                     clrloop0:
  1122  14C1  0180               	clrf	0	;clear RAM location pointed to by FSR
  1123  14C2  0A84               	incf	4,f	;increment pointer
  1124  14C3  0604               	xorwf	4,w	;XOR with final address
  1125  14C4  1903               	btfsc	3,2	;have we reached the end yet?
  1126  14C5  3400               	retlw	0	;all done for this memory range, return
  1127  14C6  0604               	xorwf	4,w	;XOR again to restore value
  1128  14C7  2CC1               	goto	clrloop0	;do the next byte
  1129                           
  1130                           	psect	cstackBANK1
  1131  00C2                     __pcstackBANK1:
  1132  00C2                     ??_printf:
  1133  00C2                     read_temperatura_interior@lecturaV:	
  1134                           ; 1 bytes @ 0x0
  1135                           
  1136                           
  1137                           ; 3 bytes @ 0x0
  1138  00C2                     	ds	3
  1139  00C5                     printf@ap:
  1140  00C5                     _read_temperatura_interior$1405:	
  1141                           ; 1 bytes @ 0x3
  1142                           
  1143                           
  1144                           ; 3 bytes @ 0x3
  1145  00C5                     	ds	1
  1146  00C6                     printf@flag:
  1147                           
  1148                           ; 1 bytes @ 0x4
  1149  00C6                     	ds	1
  1150  00C7                     printf@prec:
  1151                           
  1152                           ; 1 bytes @ 0x5
  1153  00C7                     	ds	1
  1154  00C8                     read_temperatura_interior@lectura:
  1155  00C8                     printf@val:	
  1156                           ; 2 bytes @ 0x6
  1157                           
  1158                           
  1159                           ; 2 bytes @ 0x6
  1160  00C8                     	ds	2
  1161  00CA                     printf@c:
  1162                           
  1163                           ; 1 bytes @ 0x8
  1164  00CA                     	ds	1
  1165  00CB                     ??_read_temperatura_exterior:
  1166  00CB                     ??_read_humedad:	
  1167                           ; 1 bytes @ 0x9
  1168                           
  1169  00CB                     ??_read_intensidad_lumninosa:	
  1170                           ; 1 bytes @ 0x9
  1171                           
  1172  00CB                     ??_read_potenciometro:	
  1173                           ; 1 bytes @ 0x9
  1174                           
  1175                           
  1176                           ; 1 bytes @ 0x9
  1177  00CB                     	ds	2
  1178  00CD                     read_potenciometro@aux:
  1179  00CD                     read_temperatura_exterior@V0:	
  1180                           ; 2 bytes @ 0xB
  1181                           
  1182  00CD                     read_humedad@lecturaV:	
  1183                           ; 3 bytes @ 0xB
  1184                           
  1185  00CD                     read_intensidad_lumninosa@lecturaV:	
  1186                           ; 3 bytes @ 0xB
  1187                           
  1188                           
  1189                           ; 3 bytes @ 0xB
  1190  00CD                     	ds	2
  1191  00CF                     read_potenciometro@lectura:
  1192                           
  1193                           ; 2 bytes @ 0xD
  1194  00CF                     	ds	1
  1195  00D0                     read_temperatura_exterior@Tc:
  1196  00D0                     _read_humedad$1407:	
  1197                           ; 3 bytes @ 0xE
  1198                           
  1199  00D0                     _read_intensidad_lumninosa$1408:	
  1200                           ; 3 bytes @ 0xE
  1201                           
  1202                           
  1203                           ; 3 bytes @ 0xE
  1204  00D0                     	ds	1
  1205  00D1                     read_potenciometro@lecturaV:
  1206                           
  1207                           ; 3 bytes @ 0xF
  1208  00D1                     	ds	2
  1209  00D3                     read_humedad@lectura:
  1210  00D3                     read_intensidad_lumninosa@lectura:	
  1211                           ; 2 bytes @ 0x11
  1212                           
  1213  00D3                     read_temperatura_exterior@lecturaV:	
  1214                           ; 2 bytes @ 0x11
  1215                           
  1216                           
  1217                           ; 3 bytes @ 0x11
  1218  00D3                     	ds	3
  1219  00D6                     _read_temperatura_exterior$1406:
  1220                           
  1221                           ; 3 bytes @ 0x14
  1222  00D6                     	ds	3
  1223  00D9                     read_temperatura_exterior@lectura:
  1224                           
  1225                           ; 2 bytes @ 0x17
  1226  00D9                     	ds	2
  1227  00DB                     ??_main:
  1228                           
  1229                           ; 1 bytes @ 0x19
  1230  00DB                     	ds	3
  1231                           
  1232                           	psect	cstackCOMMON
  1233  0070                     __pcstackCOMMON:
  1234  0070                     ?_set_up_Sensores:
  1235  0070                     ?_read_temperatura_interior:	
  1236                           ; 1 bytes @ 0x0
  1237                           
  1238  0070                     ?_read_temperatura_exterior:	
  1239                           ; 1 bytes @ 0x0
  1240                           
  1241  0070                     ?_read_humedad:	
  1242                           ; 1 bytes @ 0x0
  1243                           
  1244  0070                     ?_read_intensidad_lumninosa:	
  1245                           ; 1 bytes @ 0x0
  1246                           
  1247  0070                     ?_read_potenciometro:	
  1248                           ; 1 bytes @ 0x0
  1249                           
  1250  0070                     ?_init_uart:	
  1251                           ; 1 bytes @ 0x0
  1252                           
  1253  0070                     ?_putch:	
  1254                           ; 1 bytes @ 0x0
  1255                           
  1256  0070                     ?_mensajeBienvenida:	
  1257                           ; 1 bytes @ 0x0
  1258                           
  1259  0070                     ?_mostrarConsigna:	
  1260                           ; 1 bytes @ 0x0
  1261                           
  1262  0070                     ?_mostrarDatos:	
  1263                           ; 1 bytes @ 0x0
  1264                           
  1265  0070                     ?_init_PWM_CCP1:	
  1266                           ; 1 bytes @ 0x0
  1267                           
  1268  0070                     ?_init_timer2:	
  1269                           ; 1 bytes @ 0x0
  1270                           
  1271  0070                     ?_set_up_Actuadores:	
  1272                           ; 1 bytes @ 0x0
  1273                           
  1274  0070                     ?_logica_Actuadores:	
  1275                           ; 1 bytes @ 0x0
  1276                           
  1277  0070                     ?_init_timer0:	
  1278                           ; 1 bytes @ 0x0
  1279                           
  1280  0070                     ?_Handler:	
  1281                           ; 1 bytes @ 0x0
  1282                           
  1283  0070                     ?_main:	
  1284                           ; 1 bytes @ 0x0
  1285                           
  1286  0070                     ?___awmod:	
  1287                           ; 1 bytes @ 0x0
  1288                           
  1289  0070                     ___awmod@divisor:	
  1290                           ; 2 bytes @ 0x0
  1291                           
  1292                           
  1293                           ; 2 bytes @ 0x0
  1294  0070                     	ds	2
  1295  0072                     ___awmod@dividend:
  1296                           
  1297                           ; 2 bytes @ 0x2
  1298  0072                     	ds	2
  1299  0074                     ??___awmod:
  1300                           
  1301                           ; 1 bytes @ 0x4
  1302  0074                     	ds	1
  1303  0075                     ___awmod@counter:
  1304                           
  1305                           ; 1 bytes @ 0x5
  1306  0075                     	ds	1
  1307  0076                     ___awmod@sign:
  1308                           
  1309                           ; 1 bytes @ 0x6
  1310  0076                     	ds	1
  1311  0077                     ??_Handler:
  1312                           
  1313                           ; 1 bytes @ 0x7
  1314  0077                     	ds	3
  1315                           
  1316                           	psect	cstackBANK0
  1317  0020                     __pcstackBANK0:
  1318  0020                     ??_set_up_Sensores:
  1319  0020                     ??_init_uart:	
  1320                           ; 1 bytes @ 0x0
  1321                           
  1322  0020                     ??_putch:	
  1323                           ; 1 bytes @ 0x0
  1324                           
  1325  0020                     ??_init_PWM_CCP1:	
  1326                           ; 1 bytes @ 0x0
  1327                           
  1328  0020                     ??_init_timer2:	
  1329                           ; 1 bytes @ 0x0
  1330                           
  1331  0020                     ??_set_up_Actuadores:	
  1332                           ; 1 bytes @ 0x0
  1333                           
  1334  0020                     ?_set_Refrigerador:	
  1335                           ; 1 bytes @ 0x0
  1336                           
  1337  0020                     ?_set_Calefactor:	
  1338                           ; 1 bytes @ 0x0
  1339                           
  1340  0020                     ??_init_timer0:	
  1341                           ; 1 bytes @ 0x0
  1342                           
  1343  0020                     ?_get_temperatura_interior:	
  1344                           ; 1 bytes @ 0x0
  1345                           
  1346  0020                     ?_get_temperatura_exterior:	
  1347                           ; 2 bytes @ 0x0
  1348                           
  1349  0020                     ?_get_humedad:	
  1350                           ; 2 bytes @ 0x0
  1351                           
  1352  0020                     ?_get_intensidad_luminosa:	
  1353                           ; 2 bytes @ 0x0
  1354                           
  1355  0020                     ?___wmul:	
  1356                           ; 2 bytes @ 0x0
  1357                           
  1358  0020                     ?___lwdiv:	
  1359                           ; 2 bytes @ 0x0
  1360                           
  1361  0020                     ?___ftpack:	
  1362                           ; 2 bytes @ 0x0
  1363                           
  1364  0020                     ?_get_lastPotenciometro:	
  1365                           ; 3 bytes @ 0x0
  1366                           
  1367  0020                     putch@c:	
  1368                           ; 3 bytes @ 0x0
  1369                           
  1370  0020                     set_Refrigerador@on:	
  1371                           ; 1 bytes @ 0x0
  1372                           
  1373  0020                     set_Calefactor@on:	
  1374                           ; 2 bytes @ 0x0
  1375                           
  1376  0020                     ___wmul@multiplier:	
  1377                           ; 2 bytes @ 0x0
  1378                           
  1379  0020                     ___lwdiv@divisor:	
  1380                           ; 2 bytes @ 0x0
  1381                           
  1382  0020                     ___ftpack@arg:	
  1383                           ; 2 bytes @ 0x0
  1384                           
  1385                           
  1386                           ; 3 bytes @ 0x0
  1387  0020                     	ds	2
  1388  0022                     ??_get_temperatura_interior:
  1389  0022                     ??_get_temperatura_exterior:	
  1390                           ; 1 bytes @ 0x2
  1391                           
  1392  0022                     ??_get_humedad:	
  1393                           ; 1 bytes @ 0x2
  1394                           
  1395  0022                     ??_get_intensidad_luminosa:	
  1396                           ; 1 bytes @ 0x2
  1397                           
  1398  0022                     ??_set_Refrigerador:	
  1399                           ; 1 bytes @ 0x2
  1400                           
  1401  0022                     ??_set_Calefactor:	
  1402                           ; 1 bytes @ 0x2
  1403                           
  1404  0022                     ___wmul@multiplicand:	
  1405                           ; 1 bytes @ 0x2
  1406                           
  1407  0022                     ___lwdiv@dividend:	
  1408                           ; 2 bytes @ 0x2
  1409                           
  1410                           
  1411                           ; 2 bytes @ 0x2
  1412  0022                     	ds	1
  1413  0023                     ??_get_lastPotenciometro:
  1414  0023                     ___ftpack@exp:	
  1415                           ; 1 bytes @ 0x3
  1416                           
  1417                           
  1418                           ; 1 bytes @ 0x3
  1419  0023                     	ds	1
  1420  0024                     ??___wmul:
  1421  0024                     ??___lwdiv:	
  1422                           ; 1 bytes @ 0x4
  1423                           
  1424  0024                     ___ftpack@sign:	
  1425                           ; 1 bytes @ 0x4
  1426                           
  1427  0024                     ___wmul@product:	
  1428                           ; 1 bytes @ 0x4
  1429                           
  1430                           
  1431                           ; 2 bytes @ 0x4
  1432  0024                     	ds	1
  1433  0025                     ??___ftpack:
  1434  0025                     ___lwdiv@quotient:	
  1435                           ; 1 bytes @ 0x5
  1436                           
  1437                           
  1438                           ; 2 bytes @ 0x5
  1439  0025                     	ds	1
  1440  0026                     ?___awdiv:
  1441  0026                     ___awdiv@divisor:	
  1442                           ; 2 bytes @ 0x6
  1443                           
  1444                           
  1445                           ; 2 bytes @ 0x6
  1446  0026                     	ds	1
  1447  0027                     ___lwdiv@counter:
  1448                           
  1449                           ; 1 bytes @ 0x7
  1450  0027                     	ds	1
  1451  0028                     ?___lwmod:
  1452  0028                     ?___awtoft:	
  1453                           ; 2 bytes @ 0x8
  1454                           
  1455  0028                     ___awdiv@dividend:	
  1456                           ; 3 bytes @ 0x8
  1457                           
  1458  0028                     ___awtoft@c:	
  1459                           ; 2 bytes @ 0x8
  1460                           
  1461  0028                     ___lwmod@divisor:	
  1462                           ; 2 bytes @ 0x8
  1463                           
  1464                           
  1465                           ; 2 bytes @ 0x8
  1466  0028                     	ds	2
  1467  002A                     ??___awdiv:
  1468  002A                     ___lwmod@dividend:	
  1469                           ; 1 bytes @ 0xA
  1470                           
  1471                           
  1472                           ; 2 bytes @ 0xA
  1473  002A                     	ds	1
  1474  002B                     ??___awtoft:
  1475  002B                     ___awdiv@counter:	
  1476                           ; 1 bytes @ 0xB
  1477                           
  1478                           
  1479                           ; 1 bytes @ 0xB
  1480  002B                     	ds	1
  1481  002C                     ??___lwmod:
  1482  002C                     ___awdiv@sign:	
  1483                           ; 1 bytes @ 0xC
  1484                           
  1485                           
  1486                           ; 1 bytes @ 0xC
  1487  002C                     	ds	1
  1488  002D                     ___awtoft@sign:
  1489  002D                     ___lwmod@counter:	
  1490                           ; 1 bytes @ 0xD
  1491                           
  1492  002D                     ___awdiv@quotient:	
  1493                           ; 1 bytes @ 0xD
  1494                           
  1495                           
  1496                           ; 2 bytes @ 0xD
  1497  002D                     	ds	1
  1498  002E                     ?___ftge:
  1499  002E                     ?___ftadd:	
  1500                           ; 1 bit 
  1501                           
  1502  002E                     ___ftadd@f1:	
  1503                           ; 3 bytes @ 0xE
  1504                           
  1505  002E                     ___ftge@ff1:	
  1506                           ; 3 bytes @ 0xE
  1507                           
  1508                           
  1509                           ; 3 bytes @ 0xE
  1510  002E                     	ds	1
  1511  002F                     ?_get_tempObjetivo:
  1512                           
  1513                           ; 2 bytes @ 0xF
  1514  002F                     	ds	2
  1515  0031                     ??_get_tempObjetivo:
  1516  0031                     ___ftadd@f2:	
  1517                           ; 1 bytes @ 0x11
  1518                           
  1519  0031                     ___ftge@ff2:	
  1520                           ; 3 bytes @ 0x11
  1521                           
  1522                           
  1523                           ; 3 bytes @ 0x11
  1524  0031                     	ds	3
  1525  0034                     ??___ftadd:
  1526  0034                     ??___ftge:	
  1527                           ; 1 bytes @ 0x14
  1528                           
  1529                           
  1530                           ; 1 bytes @ 0x14
  1531  0034                     	ds	4
  1532  0038                     ___ftadd@sign:
  1533                           
  1534                           ; 1 bytes @ 0x18
  1535  0038                     	ds	1
  1536  0039                     ___ftadd@exp2:
  1537                           
  1538                           ; 1 bytes @ 0x19
  1539  0039                     	ds	1
  1540  003A                     ___ftadd@exp1:
  1541                           
  1542                           ; 1 bytes @ 0x1A
  1543  003A                     	ds	1
  1544  003B                     ?___ftdiv:
  1545  003B                     ___ftdiv@f2:	
  1546                           ; 3 bytes @ 0x1B
  1547                           
  1548                           
  1549                           ; 3 bytes @ 0x1B
  1550  003B                     	ds	3
  1551  003E                     ___ftdiv@f1:
  1552                           
  1553                           ; 3 bytes @ 0x1E
  1554  003E                     	ds	3
  1555  0041                     ??___ftdiv:
  1556                           
  1557                           ; 1 bytes @ 0x21
  1558  0041                     	ds	4
  1559  0045                     ___ftdiv@cntr:
  1560                           
  1561                           ; 1 bytes @ 0x25
  1562  0045                     	ds	1
  1563  0046                     ___ftdiv@f3:
  1564                           
  1565                           ; 3 bytes @ 0x26
  1566  0046                     	ds	3
  1567  0049                     ___ftdiv@exp:
  1568                           
  1569                           ; 1 bytes @ 0x29
  1570  0049                     	ds	1
  1571  004A                     ___ftdiv@sign:
  1572                           
  1573                           ; 1 bytes @ 0x2A
  1574  004A                     	ds	1
  1575  004B                     ?___ftmul:
  1576  004B                     ?___ftsub:	
  1577                           ; 3 bytes @ 0x2B
  1578                           
  1579  004B                     ___ftmul@f1:	
  1580                           ; 3 bytes @ 0x2B
  1581                           
  1582  004B                     ___ftsub@f2:	
  1583                           ; 3 bytes @ 0x2B
  1584                           
  1585                           
  1586                           ; 3 bytes @ 0x2B
  1587  004B                     	ds	3
  1588  004E                     ___ftmul@f2:
  1589  004E                     ___ftsub@f1:	
  1590                           ; 3 bytes @ 0x2E
  1591                           
  1592                           
  1593                           ; 3 bytes @ 0x2E
  1594  004E                     	ds	3
  1595  0051                     ??___ftmul:
  1596  0051                     ??___ftsub:	
  1597                           ; 1 bytes @ 0x31
  1598                           
  1599                           
  1600                           ; 1 bytes @ 0x31
  1601  0051                     	ds	4
  1602  0055                     ___ftmul@exp:
  1603                           
  1604                           ; 1 bytes @ 0x35
  1605  0055                     	ds	1
  1606  0056                     ___ftmul@f3_as_product:
  1607                           
  1608                           ; 3 bytes @ 0x36
  1609  0056                     	ds	3
  1610  0059                     ___ftmul@cntr:
  1611                           
  1612                           ; 1 bytes @ 0x39
  1613  0059                     	ds	1
  1614  005A                     ___ftmul@sign:
  1615                           
  1616                           ; 1 bytes @ 0x3A
  1617  005A                     	ds	1
  1618  005B                     ?___fttol:
  1619  005B                     ___fttol@f1:	
  1620                           ; 4 bytes @ 0x3B
  1621                           
  1622                           
  1623                           ; 3 bytes @ 0x3B
  1624  005B                     	ds	4
  1625  005F                     ??___fttol:
  1626                           
  1627                           ; 1 bytes @ 0x3F
  1628  005F                     	ds	4
  1629  0063                     ___fttol@sign1:
  1630                           
  1631                           ; 1 bytes @ 0x43
  1632  0063                     	ds	1
  1633  0064                     ___fttol@lval:
  1634                           
  1635                           ; 4 bytes @ 0x44
  1636  0064                     	ds	4
  1637  0068                     ___fttol@exp1:
  1638                           
  1639                           ; 1 bytes @ 0x48
  1640  0068                     	ds	1
  1641  0069                     ??_read_temperatura_interior:
  1642  0069                     ?_set_Ventilador:	
  1643                           ; 1 bytes @ 0x49
  1644                           
  1645  0069                     ?_get_velocidad_ventilador:	
  1646                           ; 1 bytes @ 0x49
  1647                           
  1648  0069                     set_Ventilador@intensidad:	
  1649                           ; 2 bytes @ 0x49
  1650                           
  1651                           
  1652                           ; 2 bytes @ 0x49
  1653  0069                     	ds	2
  1654  006B                     ??_get_velocidad_ventilador:
  1655  006B                     ??_set_Ventilador:	
  1656                           ; 1 bytes @ 0x4B
  1657                           
  1658  006B                     ?_printf:	
  1659                           ; 1 bytes @ 0x4B
  1660                           
  1661  006B                     printf@f:	
  1662                           ; 2 bytes @ 0x4B
  1663                           
  1664                           
  1665                           ; 2 bytes @ 0x4B
  1666  006B                     	ds	4
  1667  006F                     ??_mensajeBienvenida:
  1668  006F                     ??_mostrarConsigna:	
  1669                           ; 1 bytes @ 0x4F
  1670                           
  1671  006F                     ??_mostrarDatos:	
  1672                           ; 1 bytes @ 0x4F
  1673                           
  1674  006F                     ??_logica_Actuadores:	
  1675                           ; 1 bytes @ 0x4F
  1676                           
  1677                           
  1678                           	psect	maintext
  1679  0EE8                     __pmaintext:	
  1680                           ; 1 bytes @ 0x4F
  1681 ;;
  1682 ;;Main: autosize = 0, tempsize = 3, incstack = 0, save=0
  1683 ;;
  1684 ;; *************** function _main *****************
  1685 ;; Defined at:
  1686 ;;		line 76 in file "controlador3.c"
  1687 ;; Parameters:    Size  Location     Type
  1688 ;;		None
  1689 ;; Auto vars:     Size  Location     Type
  1690 ;;		None
  1691 ;; Return value:  Size  Location     Type
  1692 ;;                  1    wreg      void 
  1693 ;; Registers used:
  1694 ;;		wreg, fsr0l, fsr0h, status,2, status,0, btemp+1, pclath, cstack
  1695 ;; Tracked objects:
  1696 ;;		On entry : B00/0
  1697 ;;		On exit  : 0/0
  1698 ;;		Unchanged: 0/0
  1699 ;; Data sizes:     COMMON   BANK0   BANK1   BANK3   BANK2
  1700 ;;      Params:         0       0       0       0       0
  1701 ;;      Locals:         0       0       0       0       0
  1702 ;;      Temps:          0       0       3       0       0
  1703 ;;      Totals:         0       0       3       0       0
  1704 ;;Total ram usage:        3 bytes
  1705 ;; Hardware stack levels required when called:    6
  1706 ;; This function calls:
  1707 ;;		_init_timer0
  1708 ;;		_init_uart
  1709 ;;		_logica_Actuadores
  1710 ;;		_mensajeBienvenida
  1711 ;;		_mostrarConsigna
  1712 ;;		_mostrarDatos
  1713 ;;		_printf
  1714 ;;		_read_humedad
  1715 ;;		_read_intensidad_lumninosa
  1716 ;;		_read_potenciometro
  1717 ;;		_read_temperatura_exterior
  1718 ;;		_read_temperatura_interior
  1719 ;;		_set_up_Actuadores
  1720 ;;		_set_up_Sensores
  1721 ;; This function is called by:
  1722 ;;		Startup code after reset
  1723 ;; This function uses a non-reentrant model
  1724 ;;
  1725                           
  1726                           
  1727                           ;psect for function _main
  1728  0EE8                     _main:
  1729  0EE8                     l2574:	
  1730                           ;incstack = 0
  1731                           ; Regs used in _main: [wreg-fsr0h+status,2+status,0+btemp+1+pclath+cstack]
  1732                           
  1733                           
  1734                           ;controlador3.c: 78: OSCCON = 0b00001000;
  1735  0EE8  3008               	movlw	8
  1736  0EE9  1683               	bsf	3,5	;RP0=1, select bank1
  1737  0EEA  1303               	bcf	3,6	;RP1=0, select bank1
  1738  0EEB  008F               	movwf	15	;volatile
  1739  0EEC                     l2576:
  1740                           
  1741                           ;controlador3.c: 79: set_up_Actuadores();
  1742  0EEC  160A  118A  2576  120A  158A  	fcall	_set_up_Actuadores
  1743  0EF1                     l2578:
  1744                           
  1745                           ;controlador3.c: 80: set_up_Sensores();
  1746  0EF1  160A  118A  261F  120A  158A  	fcall	_set_up_Sensores
  1747  0EF6                     l2580:
  1748                           
  1749                           ;controlador3.c: 81: init_uart();
  1750  0EF6  160A  118A  258E  120A  158A  	fcall	_init_uart
  1751  0EFB                     l2582:
  1752                           
  1753                           ;controlador3.c: 82: printf("---Set UP---\n");
  1754  0EFB  30EC               	movlw	low (STR_15| (0+32768))
  1755  0EFC  1283               	bcf	3,5	;RP0=0, select bank0
  1756  0EFD  1303               	bcf	3,6	;RP1=0, select bank0
  1757  0EFE  00EB               	movwf	printf@f
  1758  0EFF  3082               	movlw	high (STR_15| (0+32768))
  1759  0F00  00EC               	movwf	printf@f+1
  1760  0F01  120A  118A  25E8  120A  158A  	fcall	_printf
  1761  0F06                     l2584:
  1762                           
  1763                           ;controlador3.c: 83: mensajeBienvenida();
  1764  0F06  160A  118A  24FE  120A  158A  	fcall	_mensajeBienvenida
  1765  0F0B                     l2586:
  1766                           
  1767                           ;controlador3.c: 84: estadoActual = Esperar;
  1768  0F0B  3003               	movlw	3
  1769  0F0C  1683               	bsf	3,5	;RP0=1, select bank1
  1770  0F0D  1303               	bcf	3,6	;RP1=0, select bank1
  1771  0F0E  00DB               	movwf	??_main^(0+128)
  1772  0F0F  085B               	movf	??_main^(0+128),w
  1773  0F10  00BF               	movwf	_estadoActual^(0+128)
  1774  0F11                     l2588:
  1775                           
  1776                           ;controlador3.c: 86: printf("Delay inicial de 3 segunds\n");
  1777  0F11  30EE               	movlw	low (STR_16| (0+32768))
  1778  0F12  1283               	bcf	3,5	;RP0=0, select bank0
  1779  0F13  1303               	bcf	3,6	;RP1=0, select bank0
  1780  0F14  00EB               	movwf	printf@f
  1781  0F15  3081               	movlw	high (STR_16| (0+32768))
  1782  0F16  00EC               	movwf	printf@f+1
  1783  0F17  120A  118A  25E8  120A  158A  	fcall	_printf
  1784  0F1C                     l2590:
  1785                           
  1786                           ;controlador3.c: 87: _delay((unsigned long)((3000)*(20000000/4000.0)));
  1787  0F1C  304D               	movlw	77
  1788  0F1D  1683               	bsf	3,5	;RP0=1, select bank1
  1789  0F1E  1303               	bcf	3,6	;RP1=0, select bank1
  1790  0F1F  00DD               	movwf	(??_main^(0+128)+2)
  1791  0F20  3019               	movlw	25
  1792  0F21  00DC               	movwf	(??_main^(0+128)+1)
  1793  0F22  304F               	movlw	79
  1794  0F23  00DB               	movwf	??_main^(0+128)
  1795  0F24                     u2917:
  1796  0F24  0BDB               	decfsz	??_main^(0+128),f
  1797  0F25  2F24               	goto	u2917
  1798  0F26  0BDC               	decfsz	(??_main^(0+128)+1),f
  1799  0F27  2F24               	goto	u2917
  1800  0F28  0BDD               	decfsz	(??_main^(0+128)+2),f
  1801  0F29  2F24               	goto	u2917
  1802  0F2A                     l2592:
  1803                           
  1804                           ;controlador3.c: 89: INTCONbits.GIE = 1;
  1805  0F2A  178B               	bsf	11,7	;volatile
  1806  0F2B                     l2594:
  1807                           
  1808                           ;controlador3.c: 90: INTCONbits.PEIE = 1;
  1809  0F2B  170B               	bsf	11,6	;volatile
  1810  0F2C                     l2596:
  1811                           
  1812                           ;controlador3.c: 91: INTCONbits.T0IE = 1;
  1813  0F2C  168B               	bsf	11,5	;volatile
  1814  0F2D                     l2598:
  1815                           
  1816                           ;controlador3.c: 92: init_timer0();
  1817  0F2D  160A  118A  24DB  120A  158A  	fcall	_init_timer0
  1818                           
  1819                           ;controlador3.c: 95: while (estadoActual != Apagar) {
  1820  0F32  2FF5               	goto	l2658
  1821  0F33                     l338:	
  1822                           ;controlador3.c: 97: case Esperar:
  1823                           
  1824                           
  1825                           ;controlador3.c: 98: __nop();
  1826  0F33  0000               	nop
  1827                           
  1828                           ;controlador3.c: 99: break;
  1829  0F34  2FF5               	goto	l2658
  1830  0F35                     l2600:
  1831                           
  1832                           ;controlador3.c: 101: printf("---Potenciometro---\n");
  1833  0F35  3093               	movlw	low (STR_17| (0+32768))
  1834  0F36  1283               	bcf	3,5	;RP0=0, select bank0
  1835  0F37  1303               	bcf	3,6	;RP1=0, select bank0
  1836  0F38  00EB               	movwf	printf@f
  1837  0F39  3082               	movlw	high (STR_17| (0+32768))
  1838  0F3A  00EC               	movwf	printf@f+1
  1839  0F3B  120A  118A  25E8  120A  158A  	fcall	_printf
  1840                           
  1841                           ;controlador3.c: 103: read_potenciometro();
  1842  0F40  120A  118A  2716  120A  158A  	fcall	_read_potenciometro
  1843  0F45                     l2602:
  1844                           
  1845                           ;controlador3.c: 104: if (estadoInterrupcion == Sensores_Actuadores || estadoInterrupcio
      +                          n == MostrarDatos) {
  1846  0F45  1683               	bsf	3,5	;RP0=1, select bank1
  1847  0F46  1303               	bcf	3,6	;RP1=0, select bank1
  1848  0F47  033E               	decf	_estadoInterrupcion^(0+128),w
  1849  0F48  1903               	btfsc	3,2
  1850  0F49  2F4B               	goto	u2871
  1851  0F4A  2F4C               	goto	u2870
  1852  0F4B                     u2871:
  1853  0F4B  2F52               	goto	l343
  1854  0F4C                     u2870:
  1855  0F4C                     l2604:
  1856  0F4C  3002               	movlw	2
  1857  0F4D  063E               	xorwf	_estadoInterrupcion^(0+128),w
  1858  0F4E  1D03               	btfss	3,2
  1859  0F4F  2F51               	goto	u2881
  1860  0F50  2F52               	goto	u2880
  1861  0F51                     u2881:
  1862  0F51  2F55               	goto	l2606
  1863  0F52                     u2880:
  1864  0F52                     l343:
  1865                           
  1866                           ;controlador3.c: 105: estadoActual = Sensores_Actuadores;
  1867  0F52  01BF               	clrf	_estadoActual^(0+128)
  1868  0F53  0ABF               	incf	_estadoActual^(0+128),f
  1869                           
  1870                           ;controlador3.c: 106: } else {
  1871  0F54  2FF5               	goto	l2658
  1872  0F55                     l2606:
  1873                           
  1874                           ;controlador3.c: 107: estadoActual = Esperar;
  1875  0F55  3003               	movlw	3
  1876  0F56  00DB               	movwf	??_main^(0+128)
  1877  0F57  085B               	movf	??_main^(0+128),w
  1878  0F58  00BF               	movwf	_estadoActual^(0+128)
  1879                           
  1880                           ;controlador3.c: 108: estadoInterrupcion = Esperar;
  1881  0F59  3003               	movlw	3
  1882  0F5A  00DB               	movwf	??_main^(0+128)
  1883  0F5B  085B               	movf	??_main^(0+128),w
  1884  0F5C  00BE               	movwf	_estadoInterrupcion^(0+128)
  1885                           
  1886                           ;controlador3.c: 110: cont++;
  1887  0F5D  3001               	movlw	1
  1888  0F5E  07FA               	addwf	_cont,f
  1889  0F5F  1803               	skipnc
  1890  0F60  0AFB               	incf	_cont+1,f
  1891  0F61  3000               	movlw	0
  1892  0F62  07FB               	addwf	_cont+1,f
  1893  0F63                     l2608:
  1894                           
  1895                           ;controlador3.c: 111: INTCONbits.T0IF = 0;
  1896  0F63  110B               	bcf	11,2	;volatile
  1897  0F64                     l2610:
  1898                           
  1899                           ;controlador3.c: 112: INTCONbits.T0IE = 1;
  1900  0F64  168B               	bsf	11,5	;volatile
  1901  0F65  2FF5               	goto	l2658
  1902  0F66                     l2612:
  1903                           
  1904                           ;controlador3.c: 119: mostrarConsigna();
  1905  0F66  160A  118A  255F  120A  158A  	fcall	_mostrarConsigna
  1906  0F6B                     l2614:
  1907                           
  1908                           ;controlador3.c: 121: ADCready = 1;
  1909  0F6B  3001               	movlw	1
  1910  0F6C  1683               	bsf	3,5	;RP0=1, select bank1
  1911  0F6D  1303               	bcf	3,6	;RP1=0, select bank1
  1912  0F6E  00B0               	movwf	_ADCready^(0+128)
  1913  0F6F  3000               	movlw	0
  1914  0F70  00B1               	movwf	(_ADCready^(0+128)+1)
  1915  0F71                     l2616:
  1916                           
  1917                           ;controlador3.c: 122: read_humedad();
  1918  0F71  120A  158A  2402  120A  158A  	fcall	_read_humedad
  1919                           
  1920                           ;controlador3.c: 123: ADCready = 1;
  1921  0F76  3001               	movlw	1
  1922  0F77  1683               	bsf	3,5	;RP0=1, select bank1
  1923  0F78  1303               	bcf	3,6	;RP1=0, select bank1
  1924  0F79  00B0               	movwf	_ADCready^(0+128)
  1925  0F7A  3000               	movlw	0
  1926  0F7B  00B1               	movwf	(_ADCready^(0+128)+1)
  1927  0F7C                     l2618:
  1928                           
  1929                           ;controlador3.c: 124: read_intensidad_lumninosa();
  1930  0F7C  120A  158A  24EE  120A  158A  	fcall	_read_intensidad_lumninosa
  1931  0F81                     l2620:
  1932                           
  1933                           ;controlador3.c: 125: ADCready = 1;
  1934  0F81  3001               	movlw	1
  1935  0F82  1683               	bsf	3,5	;RP0=1, select bank1
  1936  0F83  1303               	bcf	3,6	;RP1=0, select bank1
  1937  0F84  00B0               	movwf	_ADCready^(0+128)
  1938  0F85  3000               	movlw	0
  1939  0F86  00B1               	movwf	(_ADCready^(0+128)+1)
  1940                           
  1941                           ;controlador3.c: 126: read_temperatura_exterior();
  1942  0F87  120A  158A  25DE  120A  158A  	fcall	_read_temperatura_exterior
  1943  0F8C                     l2622:
  1944                           
  1945                           ;controlador3.c: 127: ADCready = 1;
  1946  0F8C  3001               	movlw	1
  1947  0F8D  1683               	bsf	3,5	;RP0=1, select bank1
  1948  0F8E  1303               	bcf	3,6	;RP1=0, select bank1
  1949  0F8F  00B0               	movwf	_ADCready^(0+128)
  1950  0F90  3000               	movlw	0
  1951  0F91  00B1               	movwf	(_ADCready^(0+128)+1)
  1952  0F92                     l2624:
  1953                           
  1954                           ;controlador3.c: 128: read_temperatura_interior();
  1955  0F92  120A  158A  223C  120A  158A  	fcall	_read_temperatura_interior
  1956  0F97                     l2626:
  1957                           
  1958                           ;controlador3.c: 129: ADCready = 1;
  1959  0F97  3001               	movlw	1
  1960  0F98  1683               	bsf	3,5	;RP0=1, select bank1
  1961  0F99  1303               	bcf	3,6	;RP1=0, select bank1
  1962  0F9A  00B0               	movwf	_ADCready^(0+128)
  1963  0F9B  3000               	movlw	0
  1964  0F9C  00B1               	movwf	(_ADCready^(0+128)+1)
  1965  0F9D                     l2628:
  1966                           
  1967                           ;controlador3.c: 131: logica_Actuadores();
  1968  0F9D  120A  118A  2305  120A  158A  	fcall	_logica_Actuadores
  1969  0FA2                     l2630:
  1970                           
  1971                           ;controlador3.c: 133: if (estadoInterrupcion == MostrarDatos) {
  1972  0FA2  3002               	movlw	2
  1973  0FA3  1683               	bsf	3,5	;RP0=1, select bank1
  1974  0FA4  1303               	bcf	3,6	;RP1=0, select bank1
  1975  0FA5  063E               	xorwf	_estadoInterrupcion^(0+128),w
  1976  0FA6  1D03               	btfss	3,2
  1977  0FA7  2FA9               	goto	u2891
  1978  0FA8  2FAA               	goto	u2890
  1979  0FA9                     u2891:
  1980  0FA9  2FAF               	goto	l2634
  1981  0FAA                     u2890:
  1982  0FAA                     l2632:
  1983                           
  1984                           ;controlador3.c: 134: estadoActual = MostrarDatos;
  1985  0FAA  3002               	movlw	2
  1986  0FAB  00DB               	movwf	??_main^(0+128)
  1987  0FAC  085B               	movf	??_main^(0+128),w
  1988  0FAD  00BF               	movwf	_estadoActual^(0+128)
  1989                           
  1990                           ;controlador3.c: 135: } else {
  1991  0FAE  2FF5               	goto	l2658
  1992  0FAF                     l2634:
  1993                           
  1994                           ;controlador3.c: 136: estadoActual = Esperar;
  1995  0FAF  3003               	movlw	3
  1996  0FB0  00DB               	movwf	??_main^(0+128)
  1997  0FB1  085B               	movf	??_main^(0+128),w
  1998  0FB2  00BF               	movwf	_estadoActual^(0+128)
  1999                           
  2000                           ;controlador3.c: 137: estadoInterrupcion = Esperar;
  2001  0FB3  3003               	movlw	3
  2002  0FB4  00DB               	movwf	??_main^(0+128)
  2003  0FB5  085B               	movf	??_main^(0+128),w
  2004  0FB6  00BE               	movwf	_estadoInterrupcion^(0+128)
  2005                           
  2006                           ;controlador3.c: 139: cont++;
  2007  0FB7  3001               	movlw	1
  2008  0FB8  07FA               	addwf	_cont,f
  2009  0FB9  1803               	skipnc
  2010  0FBA  0AFB               	incf	_cont+1,f
  2011  0FBB  3000               	movlw	0
  2012  0FBC  07FB               	addwf	_cont+1,f
  2013  0FBD                     l2636:
  2014                           
  2015                           ;controlador3.c: 140: INTCONbits.T0IF = 0;
  2016  0FBD  110B               	bcf	11,2	;volatile
  2017  0FBE                     l2638:
  2018                           
  2019                           ;controlador3.c: 141: INTCONbits.T0IE = 1;
  2020  0FBE  168B               	bsf	11,5	;volatile
  2021  0FBF  2FF5               	goto	l2658
  2022  0FC0                     l2640:
  2023                           
  2024                           ;controlador3.c: 147: mostrarDatos();
  2025  0FC0  120A  158A  202A  120A  158A  	fcall	_mostrarDatos
  2026  0FC5                     l2642:
  2027                           
  2028                           ;controlador3.c: 148: estadoActual = Esperar;
  2029  0FC5  3003               	movlw	3
  2030  0FC6  1683               	bsf	3,5	;RP0=1, select bank1
  2031  0FC7  1303               	bcf	3,6	;RP1=0, select bank1
  2032  0FC8  00DB               	movwf	??_main^(0+128)
  2033  0FC9  085B               	movf	??_main^(0+128),w
  2034  0FCA  00BF               	movwf	_estadoActual^(0+128)
  2035  0FCB                     l2644:
  2036                           
  2037                           ;controlador3.c: 149: estadoInterrupcion = Esperar;
  2038  0FCB  3003               	movlw	3
  2039  0FCC  00DB               	movwf	??_main^(0+128)
  2040  0FCD  085B               	movf	??_main^(0+128),w
  2041  0FCE  00BE               	movwf	_estadoInterrupcion^(0+128)
  2042  0FCF                     l2646:
  2043                           
  2044                           ;controlador3.c: 151: cont++;
  2045  0FCF  3001               	movlw	1
  2046  0FD0  07FA               	addwf	_cont,f
  2047  0FD1  1803               	skipnc
  2048  0FD2  0AFB               	incf	_cont+1,f
  2049  0FD3  3000               	movlw	0
  2050  0FD4  07FB               	addwf	_cont+1,f
  2051  0FD5                     l2648:
  2052                           
  2053                           ;controlador3.c: 152: INTCONbits.T0IF = 0;
  2054  0FD5  110B               	bcf	11,2	;volatile
  2055  0FD6                     l2650:
  2056                           
  2057                           ;controlador3.c: 153: INTCONbits.T0IE = 1;
  2058  0FD6  168B               	bsf	11,5	;volatile
  2059                           
  2060                           ;controlador3.c: 154: break;
  2061  0FD7  2FF5               	goto	l2658
  2062  0FD8                     l2652:
  2063                           
  2064                           ;controlador3.c: 157: printf("---Estado Apagando el Horno...---\n");
  2065  0FD8  308E               	movlw	low (STR_18| (0+32768))
  2066  0FD9  1283               	bcf	3,5	;RP0=0, select bank0
  2067  0FDA  1303               	bcf	3,6	;RP1=0, select bank0
  2068  0FDB  00EB               	movwf	printf@f
  2069  0FDC  3081               	movlw	high (STR_18| (0+32768))
  2070  0FDD  00EC               	movwf	printf@f+1
  2071  0FDE  120A  118A  25E8  120A  158A  	fcall	_printf
  2072                           
  2073                           ;controlador3.c: 159: break;
  2074  0FE3  2FF5               	goto	l2658
  2075  0FE4                     l2656:
  2076  0FE4  083F               	movf	_estadoActual^(0+128),w
  2077                           
  2078                           ; Switch size 1, requested type "simple"
  2079                           ; Number of cases is 5, Range of values is 0 to 4
  2080                           ; switch strategies available:
  2081                           ; Name         Instructions Cycles
  2082                           ; simple_byte           16     9 (average)
  2083                           ; direct_byte           23     8 (fixed)
  2084                           ; jumptable            260     6 (fixed)
  2085                           ;	Chosen strategy is simple_byte
  2086  0FE5  3A00               	xorlw	0	; case 0
  2087  0FE6  1903               	skipnz
  2088  0FE7  2F35               	goto	l2600
  2089  0FE8  3A01               	xorlw	1	; case 1
  2090  0FE9  1903               	skipnz
  2091  0FEA  2F66               	goto	l2612
  2092  0FEB  3A03               	xorlw	3	; case 2
  2093  0FEC  1903               	skipnz
  2094  0FED  2FC0               	goto	l2640
  2095  0FEE  3A01               	xorlw	1	; case 3
  2096  0FEF  1903               	skipnz
  2097  0FF0  2F33               	goto	l338
  2098  0FF1  3A07               	xorlw	7	; case 4
  2099  0FF2  1903               	skipnz
  2100  0FF3  2FD8               	goto	l2652
  2101  0FF4  2FF5               	goto	l2658
  2102  0FF5                     l2658:
  2103  0FF5  3004               	movlw	4
  2104  0FF6  1683               	bsf	3,5	;RP0=1, select bank1
  2105  0FF7  1303               	bcf	3,6	;RP1=0, select bank1
  2106  0FF8  063F               	xorwf	_estadoActual^(0+128),w
  2107  0FF9  1D03               	btfss	3,2
  2108  0FFA  2FFC               	goto	u2901
  2109  0FFB  2FFD               	goto	u2900
  2110  0FFC                     u2901:
  2111  0FFC  2FE4               	goto	l2656
  2112  0FFD                     u2900:
  2113  0FFD                     l351:
  2114  0FFD  120A  118A  280C   	ljmp	start
  2115  1000                     __end_of_main:
  2116                           
  2117                           	psect	text1
  2118  161F                     __ptext1:	
  2119 ;; *************** function _set_up_Sensores *****************
  2120 ;; Defined at:
  2121 ;;		line 14 in file "sensores.c"
  2122 ;; Parameters:    Size  Location     Type
  2123 ;;		None
  2124 ;; Auto vars:     Size  Location     Type
  2125 ;;		None
  2126 ;; Return value:  Size  Location     Type
  2127 ;;                  1    wreg      void 
  2128 ;; Registers used:
  2129 ;;		wreg, status,2, status,0
  2130 ;; Tracked objects:
  2131 ;;		On entry : 0/0
  2132 ;;		On exit  : 0/0
  2133 ;;		Unchanged: 0/0
  2134 ;; Data sizes:     COMMON   BANK0   BANK1   BANK3   BANK2
  2135 ;;      Params:         0       0       0       0       0
  2136 ;;      Locals:         0       0       0       0       0
  2137 ;;      Temps:          0       0       0       0       0
  2138 ;;      Totals:         0       0       0       0       0
  2139 ;;Total ram usage:        0 bytes
  2140 ;; Hardware stack levels used:    1
  2141 ;; Hardware stack levels required when called:    2
  2142 ;; This function calls:
  2143 ;;		Nothing
  2144 ;; This function is called by:
  2145 ;;		_main
  2146 ;; This function uses a non-reentrant model
  2147 ;;
  2148                           
  2149                           
  2150                           ;psect for function _set_up_Sensores
  2151  161F                     _set_up_Sensores:
  2152  161F                     l2292:	
  2153                           ;incstack = 0
  2154                           ; Regs used in _set_up_Sensores: [wreg+status,2+status,0]
  2155                           
  2156                           
  2157                           ;sensores.c: 19: ANSELHbits.ANS9 = 1;
  2158  161F  1683               	bsf	3,5	;RP0=1, select bank3
  2159  1620  1703               	bsf	3,6	;RP1=1, select bank3
  2160  1621  1489               	bsf	9,1	;volatile
  2161                           
  2162                           ;sensores.c: 20: TRISBbits.TRISB3 = 1;
  2163  1622  1683               	bsf	3,5	;RP0=1, select bank1
  2164  1623  1303               	bcf	3,6	;RP1=0, select bank1
  2165  1624  1586               	bsf	6,3	;volatile
  2166                           
  2167                           ;sensores.c: 23: ANSELHbits.ANS8 = 1;
  2168  1625  1683               	bsf	3,5	;RP0=1, select bank3
  2169  1626  1703               	bsf	3,6	;RP1=1, select bank3
  2170  1627  1409               	bsf	9,0	;volatile
  2171                           
  2172                           ;sensores.c: 24: TRISBbits.TRISB2 = 1;
  2173  1628  1683               	bsf	3,5	;RP0=1, select bank1
  2174  1629  1303               	bcf	3,6	;RP1=0, select bank1
  2175  162A  1506               	bsf	6,2	;volatile
  2176                           
  2177                           ;sensores.c: 27: ANSELHbits.ANS10 = 1;
  2178  162B  1683               	bsf	3,5	;RP0=1, select bank3
  2179  162C  1703               	bsf	3,6	;RP1=1, select bank3
  2180  162D  1509               	bsf	9,2	;volatile
  2181                           
  2182                           ;sensores.c: 28: TRISBbits.TRISB1 = 1;
  2183  162E  1683               	bsf	3,5	;RP0=1, select bank1
  2184  162F  1303               	bcf	3,6	;RP1=0, select bank1
  2185  1630  1486               	bsf	6,1	;volatile
  2186                           
  2187                           ;sensores.c: 31: ANSELHbits.ANS12 = 1;
  2188  1631  1683               	bsf	3,5	;RP0=1, select bank3
  2189  1632  1703               	bsf	3,6	;RP1=1, select bank3
  2190  1633  1609               	bsf	9,4	;volatile
  2191                           
  2192                           ;sensores.c: 32: TRISBbits.TRISB0 = 1;
  2193  1634  1683               	bsf	3,5	;RP0=1, select bank1
  2194  1635  1303               	bcf	3,6	;RP1=0, select bank1
  2195  1636  1406               	bsf	6,0	;volatile
  2196                           
  2197                           ;sensores.c: 36: ANSELHbits.ANS13 = 1;
  2198  1637  1683               	bsf	3,5	;RP0=1, select bank3
  2199  1638  1703               	bsf	3,6	;RP1=1, select bank3
  2200  1639  1689               	bsf	9,5	;volatile
  2201                           
  2202                           ;sensores.c: 37: TRISBbits.TRISB5 = 1;
  2203  163A  1683               	bsf	3,5	;RP0=1, select bank1
  2204  163B  1303               	bcf	3,6	;RP1=0, select bank1
  2205  163C  1686               	bsf	6,5	;volatile
  2206                           
  2207                           ;sensores.c: 40: PIE1bits.ADIE = 1;
  2208  163D  170C               	bsf	12,6	;volatile
  2209  163E                     l2294:
  2210                           
  2211                           ;sensores.c: 42: ADCON0bits.ADCS = 0b10;
  2212  163E  1283               	bcf	3,5	;RP0=0, select bank0
  2213  163F  1303               	bcf	3,6	;RP1=0, select bank0
  2214  1640  081F               	movf	31,w	;volatile
  2215  1641  393F               	andlw	-193
  2216  1642  3880               	iorlw	128
  2217  1643  009F               	movwf	31	;volatile
  2218  1644                     l2296:
  2219                           
  2220                           ;sensores.c: 43: ADCON0bits.ADON = 1;
  2221  1644  141F               	bsf	31,0	;volatile
  2222  1645                     l2298:
  2223                           
  2224                           ;sensores.c: 45: ADCON1bits.VCFG0 = 0;
  2225  1645  1683               	bsf	3,5	;RP0=1, select bank1
  2226  1646  1303               	bcf	3,6	;RP1=0, select bank1
  2227  1647  121F               	bcf	31,4	;volatile
  2228  1648                     l2300:
  2229                           
  2230                           ;sensores.c: 46: ADCON1bits.VCFG1 = 0;
  2231  1648  129F               	bcf	31,5	;volatile
  2232  1649                     l2302:
  2233                           
  2234                           ;sensores.c: 47: ADCON1bits.ADFM = 1;
  2235  1649  179F               	bsf	31,7	;volatile
  2236  164A                     l39:
  2237  164A  0008               	return
  2238  164B                     __end_of_set_up_Sensores:
  2239                           
  2240                           	psect	text2
  2241  1576                     __ptext2:	
  2242 ;; *************** function _set_up_Actuadores *****************
  2243 ;; Defined at:
  2244 ;;		line 40 in file "actuadores.c"
  2245 ;; Parameters:    Size  Location     Type
  2246 ;;		None
  2247 ;; Auto vars:     Size  Location     Type
  2248 ;;		None
  2249 ;; Return value:  Size  Location     Type
  2250 ;;                  1    wreg      void 
  2251 ;; Registers used:
  2252 ;;		wreg, status,2, status,0, pclath, cstack
  2253 ;; Tracked objects:
  2254 ;;		On entry : 0/0
  2255 ;;		On exit  : 0/0
  2256 ;;		Unchanged: 0/0
  2257 ;; Data sizes:     COMMON   BANK0   BANK1   BANK3   BANK2
  2258 ;;      Params:         0       0       0       0       0
  2259 ;;      Locals:         0       0       0       0       0
  2260 ;;      Temps:          0       0       0       0       0
  2261 ;;      Totals:         0       0       0       0       0
  2262 ;;Total ram usage:        0 bytes
  2263 ;; Hardware stack levels used:    1
  2264 ;; Hardware stack levels required when called:    3
  2265 ;; This function calls:
  2266 ;;		_init_PWM_CCP1
  2267 ;;		_init_timer2
  2268 ;; This function is called by:
  2269 ;;		_main
  2270 ;; This function uses a non-reentrant model
  2271 ;;
  2272                           
  2273                           
  2274                           ;psect for function _set_up_Actuadores
  2275  1576                     _set_up_Actuadores:
  2276  1576                     l2448:	
  2277                           ;incstack = 0
  2278                           ; Regs used in _set_up_Actuadores: [wreg+status,2+status,0+pclath+cstack]
  2279                           
  2280                           
  2281                           ;actuadores.c: 42: TRISCbits.TRISC4 = 0;
  2282  1576  1683               	bsf	3,5	;RP0=1, select bank1
  2283  1577  1303               	bcf	3,6	;RP1=0, select bank1
  2284  1578  1207               	bcf	7,4	;volatile
  2285                           
  2286                           ;actuadores.c: 45: ANSELHbits.ANS11 = 0;
  2287  1579  1683               	bsf	3,5	;RP0=1, select bank3
  2288  157A  1703               	bsf	3,6	;RP1=1, select bank3
  2289  157B  1189               	bcf	9,3	;volatile
  2290                           
  2291                           ;actuadores.c: 46: TRISBbits.TRISB4 = 0;
  2292  157C  1683               	bsf	3,5	;RP0=1, select bank1
  2293  157D  1303               	bcf	3,6	;RP1=0, select bank1
  2294  157E  1206               	bcf	6,4	;volatile
  2295  157F                     l2450:
  2296                           
  2297                           ;actuadores.c: 49: TRISC = 0;
  2298  157F  0187               	clrf	7	;volatile
  2299                           
  2300                           ;actuadores.c: 50: CCPR1L = 0;
  2301  1580  1283               	bcf	3,5	;RP0=0, select bank0
  2302  1581  1303               	bcf	3,6	;RP1=0, select bank0
  2303  1582  0195               	clrf	21	;volatile
  2304  1583                     l2452:
  2305                           
  2306                           ;actuadores.c: 51: init_PWM_CCP1();
  2307  1583  160A  118A  24C8  160A  118A  	fcall	_init_PWM_CCP1
  2308  1588                     l2454:
  2309                           
  2310                           ;actuadores.c: 52: init_timer2();
  2311  1588  160A  118A  253E  160A  118A  	fcall	_init_timer2
  2312  158D                     l219:
  2313  158D  0008               	return
  2314  158E                     __end_of_set_up_Actuadores:
  2315                           
  2316                           	psect	text3
  2317  153E                     __ptext3:	
  2318 ;; *************** function _init_timer2 *****************
  2319 ;; Defined at:
  2320 ;;		line 33 in file "actuadores.c"
  2321 ;; Parameters:    Size  Location     Type
  2322 ;;		None
  2323 ;; Auto vars:     Size  Location     Type
  2324 ;;		None
  2325 ;; Return value:  Size  Location     Type
  2326 ;;                  1    wreg      void 
  2327 ;; Registers used:
  2328 ;;		wreg, status,2, status,0
  2329 ;; Tracked objects:
  2330 ;;		On entry : 0/0
  2331 ;;		On exit  : 0/0
  2332 ;;		Unchanged: 0/0
  2333 ;; Data sizes:     COMMON   BANK0   BANK1   BANK3   BANK2
  2334 ;;      Params:         0       0       0       0       0
  2335 ;;      Locals:         0       0       0       0       0
  2336 ;;      Temps:          0       0       0       0       0
  2337 ;;      Totals:         0       0       0       0       0
  2338 ;;Total ram usage:        0 bytes
  2339 ;; Hardware stack levels used:    1
  2340 ;; Hardware stack levels required when called:    2
  2341 ;; This function calls:
  2342 ;;		Nothing
  2343 ;; This function is called by:
  2344 ;;		_set_up_Actuadores
  2345 ;; This function uses a non-reentrant model
  2346 ;;
  2347                           
  2348                           
  2349                           ;psect for function _init_timer2
  2350  153E                     _init_timer2:
  2351  153E                     l2144:	
  2352                           ;incstack = 0
  2353                           ; Regs used in _init_timer2: [wreg+status,2+status,0]
  2354                           
  2355                           
  2356                           ;actuadores.c: 34: T2CONbits.TMR2ON = 1;
  2357  153E  1283               	bcf	3,5	;RP0=0, select bank0
  2358  153F  1303               	bcf	3,6	;RP1=0, select bank0
  2359  1540  1512               	bsf	18,2	;volatile
  2360  1541                     l2146:
  2361                           
  2362                           ;actuadores.c: 35: T2CONbits.T2CKPS = 0b01;
  2363  1541  0812               	movf	18,w	;volatile
  2364  1542  39FC               	andlw	-4
  2365  1543  3801               	iorlw	1
  2366  1544  0092               	movwf	18	;volatile
  2367                           
  2368                           ;actuadores.c: 36: T2CONbits.TOUTPS = 0b0000;
  2369  1545  3087               	movlw	-121
  2370  1546  0592               	andwf	18,f	;volatile
  2371  1547                     l2148:
  2372                           
  2373                           ;actuadores.c: 37: PR2 = 42;
  2374  1547  302A               	movlw	42
  2375  1548  1683               	bsf	3,5	;RP0=1, select bank1
  2376  1549  1303               	bcf	3,6	;RP1=0, select bank1
  2377  154A  0092               	movwf	18	;volatile
  2378  154B                     l216:
  2379  154B  0008               	return
  2380  154C                     __end_of_init_timer2:
  2381                           
  2382                           	psect	text4
  2383  14C8                     __ptext4:	
  2384 ;; *************** function _init_PWM_CCP1 *****************
  2385 ;; Defined at:
  2386 ;;		line 21 in file "actuadores.c"
  2387 ;; Parameters:    Size  Location     Type
  2388 ;;		None
  2389 ;; Auto vars:     Size  Location     Type
  2390 ;;		None
  2391 ;; Return value:  Size  Location     Type
  2392 ;;                  1    wreg      void 
  2393 ;; Registers used:
  2394 ;;		wreg, status,2, status,0
  2395 ;; Tracked objects:
  2396 ;;		On entry : 0/0
  2397 ;;		On exit  : 0/0
  2398 ;;		Unchanged: 0/0
  2399 ;; Data sizes:     COMMON   BANK0   BANK1   BANK3   BANK2
  2400 ;;      Params:         0       0       0       0       0
  2401 ;;      Locals:         0       0       0       0       0
  2402 ;;      Temps:          0       0       0       0       0
  2403 ;;      Totals:         0       0       0       0       0
  2404 ;;Total ram usage:        0 bytes
  2405 ;; Hardware stack levels used:    1
  2406 ;; Hardware stack levels required when called:    2
  2407 ;; This function calls:
  2408 ;;		Nothing
  2409 ;; This function is called by:
  2410 ;;		_set_up_Actuadores
  2411 ;; This function uses a non-reentrant model
  2412 ;;
  2413                           
  2414                           
  2415                           ;psect for function _init_PWM_CCP1
  2416  14C8                     _init_PWM_CCP1:
  2417  14C8                     l2134:	
  2418                           ;incstack = 0
  2419                           ; Regs used in _init_PWM_CCP1: [wreg+status,2+status,0]
  2420                           
  2421                           
  2422                           ;actuadores.c: 22: CCP1CONbits.P1M = 0;
  2423  14C8  303F               	movlw	-193
  2424  14C9  1283               	bcf	3,5	;RP0=0, select bank0
  2425  14CA  1303               	bcf	3,6	;RP1=0, select bank0
  2426  14CB  0597               	andwf	23,f	;volatile
  2427  14CC                     l2136:
  2428                           
  2429                           ;actuadores.c: 23: CCP1CONbits.CCP1M0 = 0;
  2430  14CC  1017               	bcf	23,0	;volatile
  2431  14CD                     l2138:
  2432                           
  2433                           ;actuadores.c: 24: CCP1CONbits.CCP1M1 = 0;
  2434  14CD  1097               	bcf	23,1	;volatile
  2435  14CE                     l2140:
  2436                           
  2437                           ;actuadores.c: 25: CCP1CONbits.CCP1M2 = 1;
  2438  14CE  1517               	bsf	23,2	;volatile
  2439  14CF                     l2142:
  2440                           
  2441                           ;actuadores.c: 26: CCP1CONbits.CCP1M3 = 1;
  2442  14CF  1597               	bsf	23,3	;volatile
  2443  14D0                     l213:
  2444  14D0  0008               	return
  2445  14D1                     __end_of_init_PWM_CCP1:
  2446                           
  2447                           	psect	text5
  2448  0A3C                     __ptext5:	
  2449 ;; *************** function _read_temperatura_interior *****************
  2450 ;; Defined at:
  2451 ;;		line 50 in file "sensores.c"
  2452 ;; Parameters:    Size  Location     Type
  2453 ;;		None
  2454 ;; Auto vars:     Size  Location     Type
  2455 ;;  lecturaV        3    0[BANK1 ] float 
  2456 ;;  lectura         2    6[BANK1 ] int 
  2457 ;; Return value:  Size  Location     Type
  2458 ;;                  1    wreg      void 
  2459 ;; Registers used:
  2460 ;;		wreg, status,2, status,0, btemp+1, pclath, cstack
  2461 ;; Tracked objects:
  2462 ;;		On entry : 0/0
  2463 ;;		On exit  : 0/0
  2464 ;;		Unchanged: 0/0
  2465 ;; Data sizes:     COMMON   BANK0   BANK1   BANK3   BANK2
  2466 ;;      Params:         0       0       0       0       0
  2467 ;;      Locals:         0       0       8       0       0
  2468 ;;      Temps:          0       2       0       0       0
  2469 ;;      Totals:         0       2       8       0       0
  2470 ;;Total ram usage:       10 bytes
  2471 ;; Hardware stack levels used:    1
  2472 ;; Hardware stack levels required when called:    4
  2473 ;; This function calls:
  2474 ;;		___awtoft
  2475 ;;		___ftdiv
  2476 ;;		___ftmul
  2477 ;;		___fttol
  2478 ;;		___wmul
  2479 ;; This function is called by:
  2480 ;;		_main
  2481 ;; This function uses a non-reentrant model
  2482 ;;
  2483                           
  2484                           
  2485                           ;psect for function _read_temperatura_interior
  2486  0A3C                     _read_temperatura_interior:
  2487  0A3C                     l2304:	
  2488                           ;incstack = 0
  2489                           ; Regs used in _read_temperatura_interior: [wreg+status,2+status,0+btemp+1+pclath+cstack
      +                          ]
  2490                           
  2491  0A3C                     l2306:
  2492                           
  2493                           ;sensores.c: 53: ADCON0bits.CHS = 0b1001;
  2494  0A3C  1283               	bcf	3,5	;RP0=0, select bank0
  2495  0A3D  1303               	bcf	3,6	;RP1=0, select bank0
  2496  0A3E  081F               	movf	31,w	;volatile
  2497  0A3F  39C3               	andlw	-61
  2498  0A40  3824               	iorlw	36
  2499  0A41  009F               	movwf	31	;volatile
  2500  0A42                     l2308:
  2501                           
  2502                           ;sensores.c: 57: ADCON0bits.GO=1;
  2503  0A42  149F               	bsf	31,1	;volatile
  2504  0A43                     l2310:	
  2505                           ;sensores.c: 59: while (ADCready == 0);
  2506                           
  2507  0A43  1683               	bsf	3,5	;RP0=1, select bank1
  2508  0A44  1303               	bcf	3,6	;RP1=0, select bank1
  2509  0A45  0830               	movf	_ADCready^(0+128),w
  2510  0A46  0431               	iorwf	(_ADCready+1)^(0+128),w
  2511  0A47  1903               	btfsc	3,2
  2512  0A48  2A4A               	goto	u2571
  2513  0A49  2A4B               	goto	u2570
  2514  0A4A                     u2571:
  2515  0A4A  2A43               	goto	l2310
  2516  0A4B                     u2570:
  2517  0A4B                     l2312:
  2518                           
  2519                           ;sensores.c: 60: ADCready = 0;
  2520  0A4B  01B0               	clrf	_ADCready^(0+128)
  2521  0A4C  01B1               	clrf	(_ADCready+1)^(0+128)
  2522  0A4D                     l2314:
  2523                           
  2524                           ;sensores.c: 62: lectura = ADRESH << 8;
  2525  0A4D  1283               	bcf	3,5	;RP0=0, select bank0
  2526  0A4E  1303               	bcf	3,6	;RP1=0, select bank0
  2527  0A4F  081E               	movf	30,w	;volatile
  2528  0A50  00E9               	movwf	??_read_temperatura_interior
  2529  0A51  01EA               	clrf	??_read_temperatura_interior+1
  2530  0A52  0869               	movf	??_read_temperatura_interior,w
  2531  0A53  00EA               	movwf	??_read_temperatura_interior+1
  2532  0A54  01E9               	clrf	??_read_temperatura_interior
  2533  0A55  0869               	movf	??_read_temperatura_interior,w
  2534  0A56  1683               	bsf	3,5	;RP0=1, select bank1
  2535  0A57  1303               	bcf	3,6	;RP1=0, select bank1
  2536  0A58  00C8               	movwf	read_temperatura_interior@lectura^(0+128)
  2537  0A59  1283               	bcf	3,5	;RP0=0, select bank0
  2538  0A5A  1303               	bcf	3,6	;RP1=0, select bank0
  2539  0A5B  086A               	movf	??_read_temperatura_interior+1,w
  2540  0A5C  1683               	bsf	3,5	;RP0=1, select bank1
  2541  0A5D  1303               	bcf	3,6	;RP1=0, select bank1
  2542  0A5E  00C9               	movwf	(read_temperatura_interior@lectura+1)^(0+128)
  2543  0A5F                     l2316:
  2544                           
  2545                           ;sensores.c: 63: lectura += ADRESL;
  2546  0A5F  081E               	movf	30,w	;volatile
  2547  0A60  1283               	bcf	3,5	;RP0=0, select bank0
  2548  0A61  1303               	bcf	3,6	;RP1=0, select bank0
  2549  0A62  00E9               	movwf	??_read_temperatura_interior
  2550  0A63  01EA               	clrf	??_read_temperatura_interior+1
  2551  0A64  0869               	movf	??_read_temperatura_interior,w
  2552  0A65  1683               	bsf	3,5	;RP0=1, select bank1
  2553  0A66  1303               	bcf	3,6	;RP1=0, select bank1
  2554  0A67  07C8               	addwf	read_temperatura_interior@lectura^(0+128),f
  2555  0A68  1803               	skipnc
  2556  0A69  0AC9               	incf	(read_temperatura_interior@lectura+1)^(0+128),f
  2557  0A6A  1283               	bcf	3,5	;RP0=0, select bank0
  2558  0A6B  1303               	bcf	3,6	;RP1=0, select bank0
  2559  0A6C  086A               	movf	??_read_temperatura_interior+1,w
  2560  0A6D  1683               	bsf	3,5	;RP0=1, select bank1
  2561  0A6E  1303               	bcf	3,6	;RP1=0, select bank1
  2562  0A6F  07C9               	addwf	(read_temperatura_interior@lectura+1)^(0+128),f
  2563  0A70                     l2318:
  2564                           
  2565                           ;sensores.c: 66: float lecturaV = (((lectura * 5) / 1024.0)* 60)/3.75;
  2566  0A70  3000               	movlw	0
  2567  0A71  1283               	bcf	3,5	;RP0=0, select bank0
  2568  0A72  1303               	bcf	3,6	;RP1=0, select bank0
  2569  0A73  00CB               	movwf	___ftmul@f1
  2570  0A74  3070               	movlw	112
  2571  0A75  00CC               	movwf	___ftmul@f1+1
  2572  0A76  3042               	movlw	66
  2573  0A77  00CD               	movwf	___ftmul@f1+2
  2574  0A78  3000               	movlw	0
  2575  0A79  00BB               	movwf	___ftdiv@f2
  2576  0A7A  3080               	movlw	128
  2577  0A7B  00BC               	movwf	___ftdiv@f2+1
  2578  0A7C  3044               	movlw	68
  2579  0A7D  00BD               	movwf	___ftdiv@f2+2
  2580  0A7E  1683               	bsf	3,5	;RP0=1, select bank1
  2581  0A7F  1303               	bcf	3,6	;RP1=0, select bank1
  2582  0A80  0849               	movf	(read_temperatura_interior@lectura+1)^(0+128),w
  2583  0A81  1283               	bcf	3,5	;RP0=0, select bank0
  2584  0A82  1303               	bcf	3,6	;RP1=0, select bank0
  2585  0A83  00A1               	movwf	___wmul@multiplier+1
  2586  0A84  1683               	bsf	3,5	;RP0=1, select bank1
  2587  0A85  1303               	bcf	3,6	;RP1=0, select bank1
  2588  0A86  0848               	movf	read_temperatura_interior@lectura^(0+128),w
  2589  0A87  1283               	bcf	3,5	;RP0=0, select bank0
  2590  0A88  1303               	bcf	3,6	;RP1=0, select bank0
  2591  0A89  00A0               	movwf	___wmul@multiplier
  2592  0A8A  3005               	movlw	5
  2593  0A8B  00A2               	movwf	___wmul@multiplicand
  2594  0A8C  3000               	movlw	0
  2595  0A8D  00A3               	movwf	___wmul@multiplicand+1
  2596  0A8E  160A  118A  25CF  120A  158A  	fcall	___wmul
  2597  0A93  1283               	bcf	3,5	;RP0=0, select bank0
  2598  0A94  1303               	bcf	3,6	;RP1=0, select bank0
  2599  0A95  0821               	movf	?___wmul+1,w
  2600  0A96  00A9               	movwf	___awtoft@c+1
  2601  0A97  0820               	movf	?___wmul,w
  2602  0A98  00A8               	movwf	___awtoft@c
  2603  0A99  160A  118A  25F6  120A  158A  	fcall	___awtoft
  2604  0A9E  1283               	bcf	3,5	;RP0=0, select bank0
  2605  0A9F  1303               	bcf	3,6	;RP1=0, select bank0
  2606  0AA0  0828               	movf	?___awtoft,w
  2607  0AA1  00BE               	movwf	___ftdiv@f1
  2608  0AA2  0829               	movf	?___awtoft+1,w
  2609  0AA3  00BF               	movwf	___ftdiv@f1+1
  2610  0AA4  082A               	movf	?___awtoft+2,w
  2611  0AA5  00C0               	movwf	___ftdiv@f1+2
  2612  0AA6  120A  118A  2020  120A  158A  	fcall	___ftdiv
  2613  0AAB  1283               	bcf	3,5	;RP0=0, select bank0
  2614  0AAC  1303               	bcf	3,6	;RP1=0, select bank0
  2615  0AAD  083B               	movf	?___ftdiv,w
  2616  0AAE  00CE               	movwf	___ftmul@f2
  2617  0AAF  083C               	movf	?___ftdiv+1,w
  2618  0AB0  00CF               	movwf	___ftmul@f2+1
  2619  0AB1  083D               	movf	?___ftdiv+2,w
  2620  0AB2  00D0               	movwf	___ftmul@f2+2
  2621  0AB3  120A  158A  231D  120A  158A  	fcall	___ftmul
  2622  0AB8  1283               	bcf	3,5	;RP0=0, select bank0
  2623  0AB9  1303               	bcf	3,6	;RP1=0, select bank0
  2624  0ABA  084B               	movf	?___ftmul,w
  2625  0ABB  1683               	bsf	3,5	;RP0=1, select bank1
  2626  0ABC  1303               	bcf	3,6	;RP1=0, select bank1
  2627  0ABD  00C5               	movwf	_read_temperatura_interior$1405^(0+128)
  2628  0ABE  1283               	bcf	3,5	;RP0=0, select bank0
  2629  0ABF  1303               	bcf	3,6	;RP1=0, select bank0
  2630  0AC0  084C               	movf	?___ftmul+1,w
  2631  0AC1  1683               	bsf	3,5	;RP0=1, select bank1
  2632  0AC2  1303               	bcf	3,6	;RP1=0, select bank1
  2633  0AC3  00C6               	movwf	(_read_temperatura_interior$1405+1)^(0+128)
  2634  0AC4  1283               	bcf	3,5	;RP0=0, select bank0
  2635  0AC5  1303               	bcf	3,6	;RP1=0, select bank0
  2636  0AC6  084D               	movf	?___ftmul+2,w
  2637  0AC7  1683               	bsf	3,5	;RP0=1, select bank1
  2638  0AC8  1303               	bcf	3,6	;RP1=0, select bank1
  2639  0AC9  00C7               	movwf	(_read_temperatura_interior$1405+2)^(0+128)
  2640  0ACA                     l2320:
  2641                           
  2642                           ;sensores.c: 66: float lecturaV = (((lectura * 5) / 1024.0)* 60)/3.75;
  2643  0ACA  3000               	movlw	0
  2644  0ACB  1283               	bcf	3,5	;RP0=0, select bank0
  2645  0ACC  1303               	bcf	3,6	;RP1=0, select bank0
  2646  0ACD  00BB               	movwf	___ftdiv@f2
  2647  0ACE  3070               	movlw	112
  2648  0ACF  00BC               	movwf	___ftdiv@f2+1
  2649  0AD0  3040               	movlw	64
  2650  0AD1  00BD               	movwf	___ftdiv@f2+2
  2651  0AD2  1683               	bsf	3,5	;RP0=1, select bank1
  2652  0AD3  1303               	bcf	3,6	;RP1=0, select bank1
  2653  0AD4  0845               	movf	_read_temperatura_interior$1405^(0+128),w
  2654  0AD5  1283               	bcf	3,5	;RP0=0, select bank0
  2655  0AD6  1303               	bcf	3,6	;RP1=0, select bank0
  2656  0AD7  00BE               	movwf	___ftdiv@f1
  2657  0AD8  1683               	bsf	3,5	;RP0=1, select bank1
  2658  0AD9  1303               	bcf	3,6	;RP1=0, select bank1
  2659  0ADA  0846               	movf	(_read_temperatura_interior$1405+1)^(0+128),w
  2660  0ADB  1283               	bcf	3,5	;RP0=0, select bank0
  2661  0ADC  1303               	bcf	3,6	;RP1=0, select bank0
  2662  0ADD  00BF               	movwf	___ftdiv@f1+1
  2663  0ADE  1683               	bsf	3,5	;RP0=1, select bank1
  2664  0ADF  1303               	bcf	3,6	;RP1=0, select bank1
  2665  0AE0  0847               	movf	(_read_temperatura_interior$1405+2)^(0+128),w
  2666  0AE1  1283               	bcf	3,5	;RP0=0, select bank0
  2667  0AE2  1303               	bcf	3,6	;RP1=0, select bank0
  2668  0AE3  00C0               	movwf	___ftdiv@f1+2
  2669  0AE4  120A  118A  2020  120A  158A  	fcall	___ftdiv
  2670  0AE9  1283               	bcf	3,5	;RP0=0, select bank0
  2671  0AEA  1303               	bcf	3,6	;RP1=0, select bank0
  2672  0AEB  083B               	movf	?___ftdiv,w
  2673  0AEC  1683               	bsf	3,5	;RP0=1, select bank1
  2674  0AED  1303               	bcf	3,6	;RP1=0, select bank1
  2675  0AEE  00C2               	movwf	read_temperatura_interior@lecturaV^(0+128)
  2676  0AEF  1283               	bcf	3,5	;RP0=0, select bank0
  2677  0AF0  1303               	bcf	3,6	;RP1=0, select bank0
  2678  0AF1  083C               	movf	?___ftdiv+1,w
  2679  0AF2  1683               	bsf	3,5	;RP0=1, select bank1
  2680  0AF3  1303               	bcf	3,6	;RP1=0, select bank1
  2681  0AF4  00C3               	movwf	(read_temperatura_interior@lecturaV+1)^(0+128)
  2682  0AF5  1283               	bcf	3,5	;RP0=0, select bank0
  2683  0AF6  1303               	bcf	3,6	;RP1=0, select bank0
  2684  0AF7  083D               	movf	?___ftdiv+2,w
  2685  0AF8  1683               	bsf	3,5	;RP0=1, select bank1
  2686  0AF9  1303               	bcf	3,6	;RP1=0, select bank1
  2687  0AFA  00C4               	movwf	(read_temperatura_interior@lecturaV+2)^(0+128)
  2688  0AFB                     l2322:
  2689                           
  2690                           ;sensores.c: 67: tempint = (int) lecturaV;
  2691  0AFB  0842               	movf	read_temperatura_interior@lecturaV^(0+128),w
  2692  0AFC  1283               	bcf	3,5	;RP0=0, select bank0
  2693  0AFD  1303               	bcf	3,6	;RP1=0, select bank0
  2694  0AFE  00DB               	movwf	___fttol@f1
  2695  0AFF  1683               	bsf	3,5	;RP0=1, select bank1
  2696  0B00  1303               	bcf	3,6	;RP1=0, select bank1
  2697  0B01  0843               	movf	(read_temperatura_interior@lecturaV+1)^(0+128),w
  2698  0B02  1283               	bcf	3,5	;RP0=0, select bank0
  2699  0B03  1303               	bcf	3,6	;RP1=0, select bank0
  2700  0B04  00DC               	movwf	___fttol@f1+1
  2701  0B05  1683               	bsf	3,5	;RP0=1, select bank1
  2702  0B06  1303               	bcf	3,6	;RP1=0, select bank1
  2703  0B07  0844               	movf	(read_temperatura_interior@lecturaV+2)^(0+128),w
  2704  0B08  1283               	bcf	3,5	;RP0=0, select bank0
  2705  0B09  1303               	bcf	3,6	;RP1=0, select bank0
  2706  0B0A  00DD               	movwf	___fttol@f1+2
  2707  0B0B  120A  158A  2122  120A  158A  	fcall	___fttol
  2708  0B10  1283               	bcf	3,5	;RP0=0, select bank0
  2709  0B11  1303               	bcf	3,6	;RP1=0, select bank0
  2710  0B12  085C               	movf	?___fttol+1,w
  2711  0B13  1683               	bsf	3,5	;RP0=1, select bank1
  2712  0B14  1303               	bcf	3,6	;RP1=0, select bank1
  2713  0B15  00BD               	movwf	(_tempint+1)^(0+128)
  2714  0B16  1283               	bcf	3,5	;RP0=0, select bank0
  2715  0B17  1303               	bcf	3,6	;RP1=0, select bank0
  2716  0B18  085B               	movf	?___fttol,w
  2717  0B19  1683               	bsf	3,5	;RP0=1, select bank1
  2718  0B1A  1303               	bcf	3,6	;RP1=0, select bank1
  2719  0B1B  00BC               	movwf	_tempint^(0+128)
  2720  0B1C                     l45:
  2721  0B1C  0008               	return
  2722  0B1D                     __end_of_read_temperatura_interior:
  2723                           
  2724                           	psect	text6
  2725  0DDE                     __ptext6:	
  2726 ;; *************** function _read_temperatura_exterior *****************
  2727 ;; Defined at:
  2728 ;;		line 76 in file "sensores.c"
  2729 ;; Parameters:    Size  Location     Type
  2730 ;;		None
  2731 ;; Auto vars:     Size  Location     Type
  2732 ;;  lecturaV        3   17[BANK1 ] float 
  2733 ;;  Tc              3   14[BANK1 ] float 
  2734 ;;  V0              3   11[BANK1 ] float 
  2735 ;;  lectura         2   23[BANK1 ] int 
  2736 ;; Return value:  Size  Location     Type
  2737 ;;                  1    wreg      void 
  2738 ;; Registers used:
  2739 ;;		wreg, fsr0l, fsr0h, status,2, status,0, btemp+1, pclath, cstack
  2740 ;; Tracked objects:
  2741 ;;		On entry : 0/0
  2742 ;;		On exit  : 0/0
  2743 ;;		Unchanged: 0/0
  2744 ;; Data sizes:     COMMON   BANK0   BANK1   BANK3   BANK2
  2745 ;;      Params:         0       0       0       0       0
  2746 ;;      Locals:         0       0      14       0       0
  2747 ;;      Temps:          0       0       2       0       0
  2748 ;;      Totals:         0       0      16       0       0
  2749 ;;Total ram usage:       16 bytes
  2750 ;; Hardware stack levels used:    1
  2751 ;; Hardware stack levels required when called:    5
  2752 ;; This function calls:
  2753 ;;		___awtoft
  2754 ;;		___ftdiv
  2755 ;;		___ftsub
  2756 ;;		___fttol
  2757 ;;		___wmul
  2758 ;;		_printf
  2759 ;; This function is called by:
  2760 ;;		_main
  2761 ;; This function uses a non-reentrant model
  2762 ;;
  2763                           
  2764                           
  2765                           ;psect for function _read_temperatura_exterior
  2766  0DDE                     _read_temperatura_exterior:
  2767  0DDE                     l2324:	
  2768                           ;incstack = 0
  2769                           ; Regs used in _read_temperatura_exterior: [wreg-fsr0h+status,2+status,0+btemp+1+pclath+
      +                          cstack]
  2770                           
  2771  0DDE                     l2326:
  2772                           
  2773                           ;sensores.c: 80: float V0 = 0.5;
  2774  0DDE  3000               	movlw	0
  2775  0DDF  1683               	bsf	3,5	;RP0=1, select bank1
  2776  0DE0  1303               	bcf	3,6	;RP1=0, select bank1
  2777  0DE1  00CD               	movwf	read_temperatura_exterior@V0^(0+128)
  2778  0DE2  3000               	movlw	0
  2779  0DE3  00CE               	movwf	(read_temperatura_exterior@V0+1)^(0+128)
  2780  0DE4  303F               	movlw	63
  2781  0DE5  00CF               	movwf	(read_temperatura_exterior@V0+2)^(0+128)
  2782  0DE6                     l2328:
  2783                           
  2784                           ;sensores.c: 81: float Tc = 0.01;
  2785  0DE6  30D7               	movlw	215
  2786  0DE7  00D0               	movwf	read_temperatura_exterior@Tc^(0+128)
  2787  0DE8  3023               	movlw	35
  2788  0DE9  00D1               	movwf	(read_temperatura_exterior@Tc+1)^(0+128)
  2789  0DEA  303C               	movlw	60
  2790  0DEB  00D2               	movwf	(read_temperatura_exterior@Tc+2)^(0+128)
  2791  0DEC                     l2330:
  2792                           
  2793                           ;sensores.c: 83: ADCON0bits.CHS = 0b1000;
  2794  0DEC  1283               	bcf	3,5	;RP0=0, select bank0
  2795  0DED  1303               	bcf	3,6	;RP1=0, select bank0
  2796  0DEE  081F               	movf	31,w	;volatile
  2797  0DEF  39C3               	andlw	-61
  2798  0DF0  3820               	iorlw	32
  2799  0DF1  009F               	movwf	31	;volatile
  2800  0DF2                     l2332:
  2801                           
  2802                           ;sensores.c: 85: ADCON0bits.GO=1;
  2803  0DF2  149F               	bsf	31,1	;volatile
  2804  0DF3                     l2334:	
  2805                           ;sensores.c: 89: while (ADCready == 0);
  2806                           
  2807  0DF3  1683               	bsf	3,5	;RP0=1, select bank1
  2808  0DF4  1303               	bcf	3,6	;RP1=0, select bank1
  2809  0DF5  0830               	movf	_ADCready^(0+128),w
  2810  0DF6  0431               	iorwf	(_ADCready+1)^(0+128),w
  2811  0DF7  1903               	btfsc	3,2
  2812  0DF8  2DFA               	goto	u2581
  2813  0DF9  2DFB               	goto	u2580
  2814  0DFA                     u2581:
  2815  0DFA  2DF3               	goto	l2334
  2816  0DFB                     u2580:
  2817  0DFB                     l2336:
  2818                           
  2819                           ;sensores.c: 90: ADCready = 0;
  2820  0DFB  01B0               	clrf	_ADCready^(0+128)
  2821  0DFC  01B1               	clrf	(_ADCready+1)^(0+128)
  2822  0DFD                     l2338:
  2823                           
  2824                           ;sensores.c: 92: lectura = ADRESH << 8;
  2825  0DFD  1283               	bcf	3,5	;RP0=0, select bank0
  2826  0DFE  1303               	bcf	3,6	;RP1=0, select bank0
  2827  0DFF  081E               	movf	30,w	;volatile
  2828  0E00  1683               	bsf	3,5	;RP0=1, select bank1
  2829  0E01  1303               	bcf	3,6	;RP1=0, select bank1
  2830  0E02  00CB               	movwf	??_read_temperatura_exterior^(0+128)
  2831  0E03  01CC               	clrf	(??_read_temperatura_exterior^(0+128)+1)
  2832  0E04  084B               	movf	??_read_temperatura_exterior^(0+128),w
  2833  0E05  00CC               	movwf	(??_read_temperatura_exterior^(0+128)+1)
  2834  0E06  01CB               	clrf	??_read_temperatura_exterior^(0+128)
  2835  0E07  084B               	movf	??_read_temperatura_exterior^(0+128),w
  2836  0E08  00D9               	movwf	read_temperatura_exterior@lectura^(0+128)
  2837  0E09  084C               	movf	(??_read_temperatura_exterior+1)^(0+128),w
  2838  0E0A  00DA               	movwf	(read_temperatura_exterior@lectura+1)^(0+128)
  2839  0E0B                     l2340:
  2840                           
  2841                           ;sensores.c: 93: lectura += ADRESL;
  2842  0E0B  081E               	movf	30,w	;volatile
  2843  0E0C  00CB               	movwf	??_read_temperatura_exterior^(0+128)
  2844  0E0D  01CC               	clrf	(??_read_temperatura_exterior^(0+128)+1)
  2845  0E0E  084B               	movf	??_read_temperatura_exterior^(0+128),w
  2846  0E0F  07D9               	addwf	read_temperatura_exterior@lectura^(0+128),f
  2847  0E10  1803               	skipnc
  2848  0E11  0ADA               	incf	(read_temperatura_exterior@lectura+1)^(0+128),f
  2849  0E12  084C               	movf	(??_read_temperatura_exterior+1)^(0+128),w
  2850  0E13  07DA               	addwf	(read_temperatura_exterior@lectura+1)^(0+128),f
  2851  0E14                     l2342:
  2852                           
  2853                           ;sensores.c: 96: float lecturaV = (((lectura * 5) / 1024.0) - V0) / Tc;
  2854  0E14  084D               	movf	read_temperatura_exterior@V0^(0+128),w
  2855  0E15  1283               	bcf	3,5	;RP0=0, select bank0
  2856  0E16  1303               	bcf	3,6	;RP1=0, select bank0
  2857  0E17  00CB               	movwf	___ftsub@f2
  2858  0E18  1683               	bsf	3,5	;RP0=1, select bank1
  2859  0E19  1303               	bcf	3,6	;RP1=0, select bank1
  2860  0E1A  084E               	movf	(read_temperatura_exterior@V0+1)^(0+128),w
  2861  0E1B  1283               	bcf	3,5	;RP0=0, select bank0
  2862  0E1C  1303               	bcf	3,6	;RP1=0, select bank0
  2863  0E1D  00CC               	movwf	___ftsub@f2+1
  2864  0E1E  1683               	bsf	3,5	;RP0=1, select bank1
  2865  0E1F  1303               	bcf	3,6	;RP1=0, select bank1
  2866  0E20  084F               	movf	(read_temperatura_exterior@V0+2)^(0+128),w
  2867  0E21  1283               	bcf	3,5	;RP0=0, select bank0
  2868  0E22  1303               	bcf	3,6	;RP1=0, select bank0
  2869  0E23  00CD               	movwf	___ftsub@f2+2
  2870  0E24  3000               	movlw	0
  2871  0E25  00BB               	movwf	___ftdiv@f2
  2872  0E26  3080               	movlw	128
  2873  0E27  00BC               	movwf	___ftdiv@f2+1
  2874  0E28  3044               	movlw	68
  2875  0E29  00BD               	movwf	___ftdiv@f2+2
  2876  0E2A  1683               	bsf	3,5	;RP0=1, select bank1
  2877  0E2B  1303               	bcf	3,6	;RP1=0, select bank1
  2878  0E2C  085A               	movf	(read_temperatura_exterior@lectura+1)^(0+128),w
  2879  0E2D  1283               	bcf	3,5	;RP0=0, select bank0
  2880  0E2E  1303               	bcf	3,6	;RP1=0, select bank0
  2881  0E2F  00A1               	movwf	___wmul@multiplier+1
  2882  0E30  1683               	bsf	3,5	;RP0=1, select bank1
  2883  0E31  1303               	bcf	3,6	;RP1=0, select bank1
  2884  0E32  0859               	movf	read_temperatura_exterior@lectura^(0+128),w
  2885  0E33  1283               	bcf	3,5	;RP0=0, select bank0
  2886  0E34  1303               	bcf	3,6	;RP1=0, select bank0
  2887  0E35  00A0               	movwf	___wmul@multiplier
  2888  0E36  3005               	movlw	5
  2889  0E37  00A2               	movwf	___wmul@multiplicand
  2890  0E38  3000               	movlw	0
  2891  0E39  00A3               	movwf	___wmul@multiplicand+1
  2892  0E3A  160A  118A  25CF  120A  158A  	fcall	___wmul
  2893  0E3F  1283               	bcf	3,5	;RP0=0, select bank0
  2894  0E40  1303               	bcf	3,6	;RP1=0, select bank0
  2895  0E41  0821               	movf	?___wmul+1,w
  2896  0E42  00A9               	movwf	___awtoft@c+1
  2897  0E43  0820               	movf	?___wmul,w
  2898  0E44  00A8               	movwf	___awtoft@c
  2899  0E45  160A  118A  25F6  120A  158A  	fcall	___awtoft
  2900  0E4A  1283               	bcf	3,5	;RP0=0, select bank0
  2901  0E4B  1303               	bcf	3,6	;RP1=0, select bank0
  2902  0E4C  0828               	movf	?___awtoft,w
  2903  0E4D  00BE               	movwf	___ftdiv@f1
  2904  0E4E  0829               	movf	?___awtoft+1,w
  2905  0E4F  00BF               	movwf	___ftdiv@f1+1
  2906  0E50  082A               	movf	?___awtoft+2,w
  2907  0E51  00C0               	movwf	___ftdiv@f1+2
  2908  0E52  120A  118A  2020  120A  158A  	fcall	___ftdiv
  2909  0E57  1283               	bcf	3,5	;RP0=0, select bank0
  2910  0E58  1303               	bcf	3,6	;RP1=0, select bank0
  2911  0E59  083B               	movf	?___ftdiv,w
  2912  0E5A  00CE               	movwf	___ftsub@f1
  2913  0E5B  083C               	movf	?___ftdiv+1,w
  2914  0E5C  00CF               	movwf	___ftsub@f1+1
  2915  0E5D  083D               	movf	?___ftdiv+2,w
  2916  0E5E  00D0               	movwf	___ftsub@f1+2
  2917  0E5F  160A  118A  25AA  120A  158A  	fcall	___ftsub
  2918  0E64  1283               	bcf	3,5	;RP0=0, select bank0
  2919  0E65  1303               	bcf	3,6	;RP1=0, select bank0
  2920  0E66  084B               	movf	?___ftsub,w
  2921  0E67  1683               	bsf	3,5	;RP0=1, select bank1
  2922  0E68  1303               	bcf	3,6	;RP1=0, select bank1
  2923  0E69  00D6               	movwf	_read_temperatura_exterior$1406^(0+128)
  2924  0E6A  1283               	bcf	3,5	;RP0=0, select bank0
  2925  0E6B  1303               	bcf	3,6	;RP1=0, select bank0
  2926  0E6C  084C               	movf	?___ftsub+1,w
  2927  0E6D  1683               	bsf	3,5	;RP0=1, select bank1
  2928  0E6E  1303               	bcf	3,6	;RP1=0, select bank1
  2929  0E6F  00D7               	movwf	(_read_temperatura_exterior$1406+1)^(0+128)
  2930  0E70  1283               	bcf	3,5	;RP0=0, select bank0
  2931  0E71  1303               	bcf	3,6	;RP1=0, select bank0
  2932  0E72  084D               	movf	?___ftsub+2,w
  2933  0E73  1683               	bsf	3,5	;RP0=1, select bank1
  2934  0E74  1303               	bcf	3,6	;RP1=0, select bank1
  2935  0E75  00D8               	movwf	(_read_temperatura_exterior$1406+2)^(0+128)
  2936  0E76                     l2344:
  2937                           
  2938                           ;sensores.c: 96: float lecturaV = (((lectura * 5) / 1024.0) - V0) / Tc;
  2939  0E76  0850               	movf	read_temperatura_exterior@Tc^(0+128),w
  2940  0E77  1283               	bcf	3,5	;RP0=0, select bank0
  2941  0E78  1303               	bcf	3,6	;RP1=0, select bank0
  2942  0E79  00BB               	movwf	___ftdiv@f2
  2943  0E7A  1683               	bsf	3,5	;RP0=1, select bank1
  2944  0E7B  1303               	bcf	3,6	;RP1=0, select bank1
  2945  0E7C  0851               	movf	(read_temperatura_exterior@Tc+1)^(0+128),w
  2946  0E7D  1283               	bcf	3,5	;RP0=0, select bank0
  2947  0E7E  1303               	bcf	3,6	;RP1=0, select bank0
  2948  0E7F  00BC               	movwf	___ftdiv@f2+1
  2949  0E80  1683               	bsf	3,5	;RP0=1, select bank1
  2950  0E81  1303               	bcf	3,6	;RP1=0, select bank1
  2951  0E82  0852               	movf	(read_temperatura_exterior@Tc+2)^(0+128),w
  2952  0E83  1283               	bcf	3,5	;RP0=0, select bank0
  2953  0E84  1303               	bcf	3,6	;RP1=0, select bank0
  2954  0E85  00BD               	movwf	___ftdiv@f2+2
  2955  0E86  1683               	bsf	3,5	;RP0=1, select bank1
  2956  0E87  1303               	bcf	3,6	;RP1=0, select bank1
  2957  0E88  0856               	movf	_read_temperatura_exterior$1406^(0+128),w
  2958  0E89  1283               	bcf	3,5	;RP0=0, select bank0
  2959  0E8A  1303               	bcf	3,6	;RP1=0, select bank0
  2960  0E8B  00BE               	movwf	___ftdiv@f1
  2961  0E8C  1683               	bsf	3,5	;RP0=1, select bank1
  2962  0E8D  1303               	bcf	3,6	;RP1=0, select bank1
  2963  0E8E  0857               	movf	(_read_temperatura_exterior$1406+1)^(0+128),w
  2964  0E8F  1283               	bcf	3,5	;RP0=0, select bank0
  2965  0E90  1303               	bcf	3,6	;RP1=0, select bank0
  2966  0E91  00BF               	movwf	___ftdiv@f1+1
  2967  0E92  1683               	bsf	3,5	;RP0=1, select bank1
  2968  0E93  1303               	bcf	3,6	;RP1=0, select bank1
  2969  0E94  0858               	movf	(_read_temperatura_exterior$1406+2)^(0+128),w
  2970  0E95  1283               	bcf	3,5	;RP0=0, select bank0
  2971  0E96  1303               	bcf	3,6	;RP1=0, select bank0
  2972  0E97  00C0               	movwf	___ftdiv@f1+2
  2973  0E98  120A  118A  2020  120A  158A  	fcall	___ftdiv
  2974  0E9D  1283               	bcf	3,5	;RP0=0, select bank0
  2975  0E9E  1303               	bcf	3,6	;RP1=0, select bank0
  2976  0E9F  083B               	movf	?___ftdiv,w
  2977  0EA0  1683               	bsf	3,5	;RP0=1, select bank1
  2978  0EA1  1303               	bcf	3,6	;RP1=0, select bank1
  2979  0EA2  00D3               	movwf	read_temperatura_exterior@lecturaV^(0+128)
  2980  0EA3  1283               	bcf	3,5	;RP0=0, select bank0
  2981  0EA4  1303               	bcf	3,6	;RP1=0, select bank0
  2982  0EA5  083C               	movf	?___ftdiv+1,w
  2983  0EA6  1683               	bsf	3,5	;RP0=1, select bank1
  2984  0EA7  1303               	bcf	3,6	;RP1=0, select bank1
  2985  0EA8  00D4               	movwf	(read_temperatura_exterior@lecturaV+1)^(0+128)
  2986  0EA9  1283               	bcf	3,5	;RP0=0, select bank0
  2987  0EAA  1303               	bcf	3,6	;RP1=0, select bank0
  2988  0EAB  083D               	movf	?___ftdiv+2,w
  2989  0EAC  1683               	bsf	3,5	;RP0=1, select bank1
  2990  0EAD  1303               	bcf	3,6	;RP1=0, select bank1
  2991  0EAE  00D5               	movwf	(read_temperatura_exterior@lecturaV+2)^(0+128)
  2992  0EAF                     l2346:
  2993                           
  2994                           ;sensores.c: 97: tempext = (int)lecturaV;
  2995  0EAF  0853               	movf	read_temperatura_exterior@lecturaV^(0+128),w
  2996  0EB0  1283               	bcf	3,5	;RP0=0, select bank0
  2997  0EB1  1303               	bcf	3,6	;RP1=0, select bank0
  2998  0EB2  00DB               	movwf	___fttol@f1
  2999  0EB3  1683               	bsf	3,5	;RP0=1, select bank1
  3000  0EB4  1303               	bcf	3,6	;RP1=0, select bank1
  3001  0EB5  0854               	movf	(read_temperatura_exterior@lecturaV+1)^(0+128),w
  3002  0EB6  1283               	bcf	3,5	;RP0=0, select bank0
  3003  0EB7  1303               	bcf	3,6	;RP1=0, select bank0
  3004  0EB8  00DC               	movwf	___fttol@f1+1
  3005  0EB9  1683               	bsf	3,5	;RP0=1, select bank1
  3006  0EBA  1303               	bcf	3,6	;RP1=0, select bank1
  3007  0EBB  0855               	movf	(read_temperatura_exterior@lecturaV+2)^(0+128),w
  3008  0EBC  1283               	bcf	3,5	;RP0=0, select bank0
  3009  0EBD  1303               	bcf	3,6	;RP1=0, select bank0
  3010  0EBE  00DD               	movwf	___fttol@f1+2
  3011  0EBF  120A  158A  2122  120A  158A  	fcall	___fttol
  3012  0EC4  1283               	bcf	3,5	;RP0=0, select bank0
  3013  0EC5  1303               	bcf	3,6	;RP1=0, select bank0
  3014  0EC6  085C               	movf	?___fttol+1,w
  3015  0EC7  1683               	bsf	3,5	;RP0=1, select bank1
  3016  0EC8  1303               	bcf	3,6	;RP1=0, select bank1
  3017  0EC9  00BB               	movwf	(_tempext+1)^(0+128)
  3018  0ECA  1283               	bcf	3,5	;RP0=0, select bank0
  3019  0ECB  1303               	bcf	3,6	;RP1=0, select bank0
  3020  0ECC  085B               	movf	?___fttol,w
  3021  0ECD  1683               	bsf	3,5	;RP0=1, select bank1
  3022  0ECE  1303               	bcf	3,6	;RP1=0, select bank1
  3023  0ECF  00BA               	movwf	_tempext^(0+128)
  3024  0ED0                     l2348:
  3025                           
  3026                           ;sensores.c: 98: printf("Temperatura Exterior: %d \r\n",tempext);
  3027  0ED0  305E               	movlw	low (STR_1| (0+32768))
  3028  0ED1  1283               	bcf	3,5	;RP0=0, select bank0
  3029  0ED2  1303               	bcf	3,6	;RP1=0, select bank0
  3030  0ED3  00EB               	movwf	printf@f
  3031  0ED4  3082               	movlw	high (STR_1| (0+32768))
  3032  0ED5  00EC               	movwf	printf@f+1
  3033  0ED6  1683               	bsf	3,5	;RP0=1, select bank1
  3034  0ED7  1303               	bcf	3,6	;RP1=0, select bank1
  3035  0ED8  083B               	movf	(_tempext+1)^(0+128),w
  3036  0ED9  1283               	bcf	3,5	;RP0=0, select bank0
  3037  0EDA  1303               	bcf	3,6	;RP1=0, select bank0
  3038  0EDB  00EE               	movwf	?_printf+3
  3039  0EDC  1683               	bsf	3,5	;RP0=1, select bank1
  3040  0EDD  1303               	bcf	3,6	;RP1=0, select bank1
  3041  0EDE  083A               	movf	_tempext^(0+128),w
  3042  0EDF  1283               	bcf	3,5	;RP0=0, select bank0
  3043  0EE0  1303               	bcf	3,6	;RP1=0, select bank0
  3044  0EE1  00ED               	movwf	?_printf+2
  3045  0EE2  120A  118A  25E8  120A  158A  	fcall	_printf
  3046  0EE7                     l54:
  3047  0EE7  0008               	return
  3048  0EE8                     __end_of_read_temperatura_exterior:
  3049                           
  3050                           	psect	text7
  3051  15AA                     __ptext7:	
  3052 ;; *************** function ___ftsub *****************
  3053 ;; Defined at:
  3054 ;;		line 17 in file "C:\Program Files\Microchip\xc8\v2.30\pic\sources\c90\common\ftsub.c"
  3055 ;; Parameters:    Size  Location     Type
  3056 ;;  f2              3   43[BANK0 ] float 
  3057 ;;  f1              3   46[BANK0 ] float 
  3058 ;; Auto vars:     Size  Location     Type
  3059 ;;		None
  3060 ;; Return value:  Size  Location     Type
  3061 ;;                  3   43[BANK0 ] float 
  3062 ;; Registers used:
  3063 ;;		wreg, status,2, status,0, pclath, cstack
  3064 ;; Tracked objects:
  3065 ;;		On entry : 0/0
  3066 ;;		On exit  : 0/0
  3067 ;;		Unchanged: 0/0
  3068 ;; Data sizes:     COMMON   BANK0   BANK1   BANK3   BANK2
  3069 ;;      Params:         0       6       0       0       0
  3070 ;;      Locals:         0       0       0       0       0
  3071 ;;      Temps:          0       0       0       0       0
  3072 ;;      Totals:         0       6       0       0       0
  3073 ;;Total ram usage:        6 bytes
  3074 ;; Hardware stack levels used:    1
  3075 ;; Hardware stack levels required when called:    4
  3076 ;; This function calls:
  3077 ;;		___ftadd
  3078 ;; This function is called by:
  3079 ;;		_read_temperatura_exterior
  3080 ;; This function uses a non-reentrant model
  3081 ;;
  3082                           
  3083                           
  3084                           ;psect for function ___ftsub
  3085  15AA                     ___ftsub:
  3086  15AA                     l2284:	
  3087                           ;incstack = 0
  3088                           ; Regs used in ___ftsub: [wreg+status,2+status,0+pclath+cstack]
  3089                           
  3090  15AA  1283               	bcf	3,5	;RP0=0, select bank0
  3091  15AB  1303               	bcf	3,6	;RP1=0, select bank0
  3092  15AC  084D               	movf	___ftsub@f2+2,w
  3093  15AD  044C               	iorwf	___ftsub@f2+1,w
  3094  15AE  044B               	iorwf	___ftsub@f2,w
  3095  15AF  1903               	skipnz
  3096  15B0  2DB2               	goto	u2561
  3097  15B1  2DB3               	goto	u2560
  3098  15B2                     u2561:
  3099  15B2  2DB5               	goto	l2288
  3100  15B3                     u2560:
  3101  15B3                     l2286:
  3102  15B3  3080               	movlw	128
  3103  15B4  06CD               	xorwf	___ftsub@f2+2,f
  3104  15B5                     l2288:
  3105  15B5  084E               	movf	___ftsub@f1,w
  3106  15B6  00AE               	movwf	___ftadd@f1
  3107  15B7  084F               	movf	___ftsub@f1+1,w
  3108  15B8  00AF               	movwf	___ftadd@f1+1
  3109  15B9  0850               	movf	___ftsub@f1+2,w
  3110  15BA  00B0               	movwf	___ftadd@f1+2
  3111  15BB  084B               	movf	___ftsub@f2,w
  3112  15BC  00B1               	movwf	___ftadd@f2
  3113  15BD  084C               	movf	___ftsub@f2+1,w
  3114  15BE  00B2               	movwf	___ftadd@f2+1
  3115  15BF  084D               	movf	___ftsub@f2+2,w
  3116  15C0  00B3               	movwf	___ftadd@f2+2
  3117  15C1  120A  118A  24B2  160A  118A  	fcall	___ftadd
  3118  15C6  1283               	bcf	3,5	;RP0=0, select bank0
  3119  15C7  1303               	bcf	3,6	;RP1=0, select bank0
  3120  15C8  082E               	movf	?___ftadd,w
  3121  15C9  00CB               	movwf	?___ftsub
  3122  15CA  082F               	movf	?___ftadd+1,w
  3123  15CB  00CC               	movwf	?___ftsub+1
  3124  15CC  0830               	movf	?___ftadd+2,w
  3125  15CD  00CD               	movwf	?___ftsub+2
  3126  15CE                     l759:
  3127  15CE  0008               	return
  3128  15CF                     __end_of___ftsub:
  3129                           
  3130                           	psect	text8
  3131  0716                     __ptext8:	
  3132 ;; *************** function _read_potenciometro *****************
  3133 ;; Defined at:
  3134 ;;		line 162 in file "sensores.c"
  3135 ;; Parameters:    Size  Location     Type
  3136 ;;		None
  3137 ;; Auto vars:     Size  Location     Type
  3138 ;;  lecturaV        3   15[BANK1 ] float 
  3139 ;;  lectura         2   13[BANK1 ] int 
  3140 ;;  aux             2   11[BANK1 ] int 
  3141 ;; Return value:  Size  Location     Type
  3142 ;;                  1    wreg      void 
  3143 ;; Registers used:
  3144 ;;		wreg, fsr0l, fsr0h, status,2, status,0, btemp+1, pclath, cstack
  3145 ;; Tracked objects:
  3146 ;;		On entry : 0/0
  3147 ;;		On exit  : 0/0
  3148 ;;		Unchanged: 0/0
  3149 ;; Data sizes:     COMMON   BANK0   BANK1   BANK3   BANK2
  3150 ;;      Params:         0       0       0       0       0
  3151 ;;      Locals:         0       0       7       0       0
  3152 ;;      Temps:          0       0       2       0       0
  3153 ;;      Totals:         0       0       9       0       0
  3154 ;;Total ram usage:        9 bytes
  3155 ;; Hardware stack levels used:    1
  3156 ;; Hardware stack levels required when called:    4
  3157 ;; This function calls:
  3158 ;;		___awtoft
  3159 ;;		___ftdiv
  3160 ;;		___ftmul
  3161 ;;		___fttol
  3162 ;;		___wmul
  3163 ;;		_get_tempObjetivo
  3164 ;;		_printf
  3165 ;; This function is called by:
  3166 ;;		_main
  3167 ;; This function uses a non-reentrant model
  3168 ;;
  3169                           
  3170                           
  3171                           ;psect for function _read_potenciometro
  3172  0716                     _read_potenciometro:
  3173  0716                     l2396:	
  3174                           ;incstack = 0
  3175                           ; Regs used in _read_potenciometro: [wreg-fsr0h+status,2+status,0+btemp+1+pclath+cstack]
  3176                           
  3177                           
  3178                           ;sensores.c: 164: int aux = 0;
  3179  0716  1683               	bsf	3,5	;RP0=1, select bank1
  3180  0717  1303               	bcf	3,6	;RP1=0, select bank1
  3181  0718  01CD               	clrf	read_potenciometro@aux^(0+128)
  3182  0719  01CE               	clrf	(read_potenciometro@aux+1)^(0+128)
  3183  071A                     l2398:
  3184                           
  3185                           ;sensores.c: 165: ADCON0bits.CHS = 0b1101;
  3186  071A  1283               	bcf	3,5	;RP0=0, select bank0
  3187  071B  1303               	bcf	3,6	;RP1=0, select bank0
  3188  071C  081F               	movf	31,w	;volatile
  3189  071D  39C3               	andlw	-61
  3190  071E  3834               	iorlw	52
  3191  071F  009F               	movwf	31	;volatile
  3192  0720                     l2400:
  3193                           
  3194                           ;sensores.c: 167: ADCON0bits.GO=1;
  3195  0720  149F               	bsf	31,1	;volatile
  3196  0721                     l2402:	
  3197                           ;sensores.c: 170: while (ADCready == 0);
  3198                           
  3199  0721  1683               	bsf	3,5	;RP0=1, select bank1
  3200  0722  1303               	bcf	3,6	;RP1=0, select bank1
  3201  0723  0830               	movf	_ADCready^(0+128),w
  3202  0724  0431               	iorwf	(_ADCready+1)^(0+128),w
  3203  0725  1903               	btfsc	3,2
  3204  0726  2F28               	goto	u2611
  3205  0727  2F29               	goto	u2610
  3206  0728                     u2611:
  3207  0728  2F21               	goto	l2402
  3208  0729                     u2610:
  3209  0729                     l2404:
  3210                           
  3211                           ;sensores.c: 171: ADCready = 0;
  3212  0729  01B0               	clrf	_ADCready^(0+128)
  3213  072A  01B1               	clrf	(_ADCready+1)^(0+128)
  3214  072B                     l2406:
  3215                           
  3216                           ;sensores.c: 173: lectura = ADRESH << 8;
  3217  072B  1283               	bcf	3,5	;RP0=0, select bank0
  3218  072C  1303               	bcf	3,6	;RP1=0, select bank0
  3219  072D  081E               	movf	30,w	;volatile
  3220  072E  1683               	bsf	3,5	;RP0=1, select bank1
  3221  072F  1303               	bcf	3,6	;RP1=0, select bank1
  3222  0730  00CB               	movwf	??_read_potenciometro^(0+128)
  3223  0731  01CC               	clrf	(??_read_potenciometro^(0+128)+1)
  3224  0732  084B               	movf	??_read_potenciometro^(0+128),w
  3225  0733  00CC               	movwf	(??_read_potenciometro^(0+128)+1)
  3226  0734  01CB               	clrf	??_read_potenciometro^(0+128)
  3227  0735  084B               	movf	??_read_potenciometro^(0+128),w
  3228  0736  00CF               	movwf	read_potenciometro@lectura^(0+128)
  3229  0737  084C               	movf	(??_read_potenciometro+1)^(0+128),w
  3230  0738  00D0               	movwf	(read_potenciometro@lectura+1)^(0+128)
  3231  0739                     l2408:
  3232                           
  3233                           ;sensores.c: 174: lectura += ADRESL;
  3234  0739  081E               	movf	30,w	;volatile
  3235  073A  00CB               	movwf	??_read_potenciometro^(0+128)
  3236  073B  01CC               	clrf	(??_read_potenciometro^(0+128)+1)
  3237  073C  084B               	movf	??_read_potenciometro^(0+128),w
  3238  073D  07CF               	addwf	read_potenciometro@lectura^(0+128),f
  3239  073E  1803               	skipnc
  3240  073F  0AD0               	incf	(read_potenciometro@lectura+1)^(0+128),f
  3241  0740  084C               	movf	(??_read_potenciometro+1)^(0+128),w
  3242  0741  07D0               	addwf	(read_potenciometro@lectura+1)^(0+128),f
  3243  0742                     l2410:
  3244                           
  3245                           ;sensores.c: 177: float lecturaV = (lectura * 5) / 1024.0;
  3246  0742  3000               	movlw	0
  3247  0743  1283               	bcf	3,5	;RP0=0, select bank0
  3248  0744  1303               	bcf	3,6	;RP1=0, select bank0
  3249  0745  00BB               	movwf	___ftdiv@f2
  3250  0746  3080               	movlw	128
  3251  0747  00BC               	movwf	___ftdiv@f2+1
  3252  0748  3044               	movlw	68
  3253  0749  00BD               	movwf	___ftdiv@f2+2
  3254  074A  1683               	bsf	3,5	;RP0=1, select bank1
  3255  074B  1303               	bcf	3,6	;RP1=0, select bank1
  3256  074C  0850               	movf	(read_potenciometro@lectura+1)^(0+128),w
  3257  074D  1283               	bcf	3,5	;RP0=0, select bank0
  3258  074E  1303               	bcf	3,6	;RP1=0, select bank0
  3259  074F  00A1               	movwf	___wmul@multiplier+1
  3260  0750  1683               	bsf	3,5	;RP0=1, select bank1
  3261  0751  1303               	bcf	3,6	;RP1=0, select bank1
  3262  0752  084F               	movf	read_potenciometro@lectura^(0+128),w
  3263  0753  1283               	bcf	3,5	;RP0=0, select bank0
  3264  0754  1303               	bcf	3,6	;RP1=0, select bank0
  3265  0755  00A0               	movwf	___wmul@multiplier
  3266  0756  3005               	movlw	5
  3267  0757  00A2               	movwf	___wmul@multiplicand
  3268  0758  3000               	movlw	0
  3269  0759  00A3               	movwf	___wmul@multiplicand+1
  3270  075A  160A  118A  25CF  120A  118A  	fcall	___wmul
  3271  075F  1283               	bcf	3,5	;RP0=0, select bank0
  3272  0760  1303               	bcf	3,6	;RP1=0, select bank0
  3273  0761  0821               	movf	?___wmul+1,w
  3274  0762  00A9               	movwf	___awtoft@c+1
  3275  0763  0820               	movf	?___wmul,w
  3276  0764  00A8               	movwf	___awtoft@c
  3277  0765  160A  118A  25F6  120A  118A  	fcall	___awtoft
  3278  076A  1283               	bcf	3,5	;RP0=0, select bank0
  3279  076B  1303               	bcf	3,6	;RP1=0, select bank0
  3280  076C  0828               	movf	?___awtoft,w
  3281  076D  00BE               	movwf	___ftdiv@f1
  3282  076E  0829               	movf	?___awtoft+1,w
  3283  076F  00BF               	movwf	___ftdiv@f1+1
  3284  0770  082A               	movf	?___awtoft+2,w
  3285  0771  00C0               	movwf	___ftdiv@f1+2
  3286  0772  120A  118A  2020  120A  118A  	fcall	___ftdiv
  3287  0777  1283               	bcf	3,5	;RP0=0, select bank0
  3288  0778  1303               	bcf	3,6	;RP1=0, select bank0
  3289  0779  083B               	movf	?___ftdiv,w
  3290  077A  1683               	bsf	3,5	;RP0=1, select bank1
  3291  077B  1303               	bcf	3,6	;RP1=0, select bank1
  3292  077C  00D1               	movwf	read_potenciometro@lecturaV^(0+128)
  3293  077D  1283               	bcf	3,5	;RP0=0, select bank0
  3294  077E  1303               	bcf	3,6	;RP1=0, select bank0
  3295  077F  083C               	movf	?___ftdiv+1,w
  3296  0780  1683               	bsf	3,5	;RP0=1, select bank1
  3297  0781  1303               	bcf	3,6	;RP1=0, select bank1
  3298  0782  00D2               	movwf	(read_potenciometro@lecturaV+1)^(0+128)
  3299  0783  1283               	bcf	3,5	;RP0=0, select bank0
  3300  0784  1303               	bcf	3,6	;RP1=0, select bank0
  3301  0785  083D               	movf	?___ftdiv+2,w
  3302  0786  1683               	bsf	3,5	;RP0=1, select bank1
  3303  0787  1303               	bcf	3,6	;RP1=0, select bank1
  3304  0788  00D3               	movwf	(read_potenciometro@lecturaV+2)^(0+128)
  3305  0789                     l2412:
  3306                           
  3307                           ;sensores.c: 178: lastPotenciometro = lecturaV;
  3308  0789  0851               	movf	read_potenciometro@lecturaV^(0+128),w
  3309  078A  00A9               	movwf	_lastPotenciometro^(0+128)
  3310  078B  0852               	movf	(read_potenciometro@lecturaV+1)^(0+128),w
  3311  078C  00AA               	movwf	(_lastPotenciometro+1)^(0+128)
  3312  078D  0853               	movf	(read_potenciometro@lecturaV+2)^(0+128),w
  3313  078E  00AB               	movwf	(_lastPotenciometro+2)^(0+128)
  3314  078F                     l2414:
  3315                           
  3316                           ;sensores.c: 179: aux = (lecturaV * 60) / 3.0;
  3317  078F  0851               	movf	read_potenciometro@lecturaV^(0+128),w
  3318  0790  1283               	bcf	3,5	;RP0=0, select bank0
  3319  0791  1303               	bcf	3,6	;RP1=0, select bank0
  3320  0792  00CE               	movwf	___ftmul@f2
  3321  0793  1683               	bsf	3,5	;RP0=1, select bank1
  3322  0794  1303               	bcf	3,6	;RP1=0, select bank1
  3323  0795  0852               	movf	(read_potenciometro@lecturaV+1)^(0+128),w
  3324  0796  1283               	bcf	3,5	;RP0=0, select bank0
  3325  0797  1303               	bcf	3,6	;RP1=0, select bank0
  3326  0798  00CF               	movwf	___ftmul@f2+1
  3327  0799  1683               	bsf	3,5	;RP0=1, select bank1
  3328  079A  1303               	bcf	3,6	;RP1=0, select bank1
  3329  079B  0853               	movf	(read_potenciometro@lecturaV+2)^(0+128),w
  3330  079C  1283               	bcf	3,5	;RP0=0, select bank0
  3331  079D  1303               	bcf	3,6	;RP1=0, select bank0
  3332  079E  00D0               	movwf	___ftmul@f2+2
  3333  079F  3000               	movlw	0
  3334  07A0  00CB               	movwf	___ftmul@f1
  3335  07A1  3070               	movlw	112
  3336  07A2  00CC               	movwf	___ftmul@f1+1
  3337  07A3  3042               	movlw	66
  3338  07A4  00CD               	movwf	___ftmul@f1+2
  3339  07A5  120A  158A  231D  120A  118A  	fcall	___ftmul
  3340  07AA  1283               	bcf	3,5	;RP0=0, select bank0
  3341  07AB  1303               	bcf	3,6	;RP1=0, select bank0
  3342  07AC  084B               	movf	?___ftmul,w
  3343  07AD  00BE               	movwf	___ftdiv@f1
  3344  07AE  084C               	movf	?___ftmul+1,w
  3345  07AF  00BF               	movwf	___ftdiv@f1+1
  3346  07B0  084D               	movf	?___ftmul+2,w
  3347  07B1  00C0               	movwf	___ftdiv@f1+2
  3348  07B2  3000               	movlw	0
  3349  07B3  00BB               	movwf	___ftdiv@f2
  3350  07B4  3040               	movlw	64
  3351  07B5  00BC               	movwf	___ftdiv@f2+1
  3352  07B6  3040               	movlw	64
  3353  07B7  00BD               	movwf	___ftdiv@f2+2
  3354  07B8  120A  118A  2020  120A  118A  	fcall	___ftdiv
  3355  07BD  1283               	bcf	3,5	;RP0=0, select bank0
  3356  07BE  1303               	bcf	3,6	;RP1=0, select bank0
  3357  07BF  083B               	movf	?___ftdiv,w
  3358  07C0  00DB               	movwf	___fttol@f1
  3359  07C1  083C               	movf	?___ftdiv+1,w
  3360  07C2  00DC               	movwf	___fttol@f1+1
  3361  07C3  083D               	movf	?___ftdiv+2,w
  3362  07C4  00DD               	movwf	___fttol@f1+2
  3363  07C5  120A  158A  2122  120A  118A  	fcall	___fttol
  3364  07CA  1283               	bcf	3,5	;RP0=0, select bank0
  3365  07CB  1303               	bcf	3,6	;RP1=0, select bank0
  3366  07CC  085C               	movf	?___fttol+1,w
  3367  07CD  1683               	bsf	3,5	;RP0=1, select bank1
  3368  07CE  1303               	bcf	3,6	;RP1=0, select bank1
  3369  07CF  00CE               	movwf	(read_potenciometro@aux+1)^(0+128)
  3370  07D0  1283               	bcf	3,5	;RP0=0, select bank0
  3371  07D1  1303               	bcf	3,6	;RP1=0, select bank0
  3372  07D2  085B               	movf	?___fttol,w
  3373  07D3  1683               	bsf	3,5	;RP0=1, select bank1
  3374  07D4  1303               	bcf	3,6	;RP1=0, select bank1
  3375  07D5  00CD               	movwf	read_potenciometro@aux^(0+128)
  3376  07D6                     l2416:
  3377                           
  3378                           ;sensores.c: 180: sumaLecturas = sumaLecturas + aux;
  3379  07D6  084D               	movf	read_potenciometro@aux^(0+128),w
  3380  07D7  0734               	addwf	_sumaLecturas^(0+128),w
  3381  07D8  00B4               	movwf	_sumaLecturas^(0+128)
  3382  07D9  084E               	movf	(read_potenciometro@aux+1)^(0+128),w
  3383  07DA  1803               	skipnc
  3384  07DB  0A4E               	incf	(read_potenciometro@aux+1)^(0+128),w
  3385  07DC  0735               	addwf	(_sumaLecturas+1)^(0+128),w
  3386  07DD  00B5               	movwf	(_sumaLecturas+1)^(0+128)
  3387  07DE                     l2418:
  3388                           
  3389                           ;sensores.c: 181: numeroLecturas++;
  3390  07DE  3001               	movlw	1
  3391  07DF  07B2               	addwf	_numeroLecturas^(0+128),f
  3392  07E0  1803               	skipnc
  3393  07E1  0AB3               	incf	(_numeroLecturas+1)^(0+128),f
  3394  07E2  3000               	movlw	0
  3395  07E3  07B3               	addwf	(_numeroLecturas+1)^(0+128),f
  3396  07E4                     l2420:
  3397                           
  3398                           ;sensores.c: 184: printf(" Temperatura objetivo: %d \r\n",get_tempObjetivo());
  3399  07E4  30D1               	movlw	low (STR_5| (0+32768))
  3400  07E5  1283               	bcf	3,5	;RP0=0, select bank0
  3401  07E6  1303               	bcf	3,6	;RP1=0, select bank0
  3402  07E7  00EB               	movwf	printf@f
  3403  07E8  3081               	movlw	high (STR_5| (0+32768))
  3404  07E9  00EC               	movwf	printf@f+1
  3405  07EA  160A  118A  264B  120A  118A  	fcall	_get_tempObjetivo
  3406  07EF  1283               	bcf	3,5	;RP0=0, select bank0
  3407  07F0  1303               	bcf	3,6	;RP1=0, select bank0
  3408  07F1  0830               	movf	?_get_tempObjetivo+1,w
  3409  07F2  00EE               	movwf	?_printf+3
  3410  07F3  082F               	movf	?_get_tempObjetivo,w
  3411  07F4  00ED               	movwf	?_printf+2
  3412  07F5  120A  118A  25E8  120A  118A  	fcall	_printf
  3413  07FA                     l81:
  3414  07FA  0008               	return
  3415  07FB                     __end_of_read_potenciometro:
  3416                           
  3417                           	psect	text9
  3418  0CEE                     __ptext9:	
  3419 ;; *************** function _read_intensidad_lumninosa *****************
  3420 ;; Defined at:
  3421 ;;		line 134 in file "sensores.c"
  3422 ;; Parameters:    Size  Location     Type
  3423 ;;		None
  3424 ;; Auto vars:     Size  Location     Type
  3425 ;;  lecturaV        3   11[BANK1 ] float 
  3426 ;;  lectura         2   17[BANK1 ] int 
  3427 ;; Return value:  Size  Location     Type
  3428 ;;                  1    wreg      void 
  3429 ;; Registers used:
  3430 ;;		wreg, fsr0l, fsr0h, status,2, status,0, btemp+1, pclath, cstack
  3431 ;; Tracked objects:
  3432 ;;		On entry : 0/0
  3433 ;;		On exit  : 0/0
  3434 ;;		Unchanged: 0/0
  3435 ;; Data sizes:     COMMON   BANK0   BANK1   BANK3   BANK2
  3436 ;;      Params:         0       0       0       0       0
  3437 ;;      Locals:         0       0       8       0       0
  3438 ;;      Temps:          0       0       2       0       0
  3439 ;;      Totals:         0       0      10       0       0
  3440 ;;Total ram usage:       10 bytes
  3441 ;; Hardware stack levels used:    1
  3442 ;; Hardware stack levels required when called:    4
  3443 ;; This function calls:
  3444 ;;		___awtoft
  3445 ;;		___ftdiv
  3446 ;;		___fttol
  3447 ;;		___wmul
  3448 ;;		_printf
  3449 ;; This function is called by:
  3450 ;;		_main
  3451 ;; This function uses a non-reentrant model
  3452 ;;
  3453                           
  3454                           
  3455                           ;psect for function _read_intensidad_lumninosa
  3456  0CEE                     _read_intensidad_lumninosa:
  3457  0CEE                     l2372:	
  3458                           ;incstack = 0
  3459                           ; Regs used in _read_intensidad_lumninosa: [wreg-fsr0h+status,2+status,0+btemp+1+pclath+
      +                          cstack]
  3460                           
  3461  0CEE                     l2374:
  3462                           
  3463                           ;sensores.c: 137: ADCON0bits.CHS = 0b1100;
  3464  0CEE  1283               	bcf	3,5	;RP0=0, select bank0
  3465  0CEF  1303               	bcf	3,6	;RP1=0, select bank0
  3466  0CF0  081F               	movf	31,w	;volatile
  3467  0CF1  39C3               	andlw	-61
  3468  0CF2  3830               	iorlw	48
  3469  0CF3  009F               	movwf	31	;volatile
  3470  0CF4                     l2376:
  3471                           
  3472                           ;sensores.c: 139: ADCON0bits.GO=1;
  3473  0CF4  149F               	bsf	31,1	;volatile
  3474  0CF5                     l2378:	
  3475                           ;sensores.c: 142: while (ADCready == 0);
  3476                           
  3477  0CF5  1683               	bsf	3,5	;RP0=1, select bank1
  3478  0CF6  1303               	bcf	3,6	;RP1=0, select bank1
  3479  0CF7  0830               	movf	_ADCready^(0+128),w
  3480  0CF8  0431               	iorwf	(_ADCready+1)^(0+128),w
  3481  0CF9  1903               	btfsc	3,2
  3482  0CFA  2CFC               	goto	u2601
  3483  0CFB  2CFD               	goto	u2600
  3484  0CFC                     u2601:
  3485  0CFC  2CF5               	goto	l2378
  3486  0CFD                     u2600:
  3487  0CFD                     l2380:
  3488                           
  3489                           ;sensores.c: 143: ADCready = 0;
  3490  0CFD  01B0               	clrf	_ADCready^(0+128)
  3491  0CFE  01B1               	clrf	(_ADCready+1)^(0+128)
  3492  0CFF                     l2382:
  3493                           
  3494                           ;sensores.c: 145: lectura = ADRESH << 8;
  3495  0CFF  1283               	bcf	3,5	;RP0=0, select bank0
  3496  0D00  1303               	bcf	3,6	;RP1=0, select bank0
  3497  0D01  081E               	movf	30,w	;volatile
  3498  0D02  1683               	bsf	3,5	;RP0=1, select bank1
  3499  0D03  1303               	bcf	3,6	;RP1=0, select bank1
  3500  0D04  00CB               	movwf	??_read_intensidad_lumninosa^(0+128)
  3501  0D05  01CC               	clrf	(??_read_intensidad_lumninosa^(0+128)+1)
  3502  0D06  084B               	movf	??_read_intensidad_lumninosa^(0+128),w
  3503  0D07  00CC               	movwf	(??_read_intensidad_lumninosa^(0+128)+1)
  3504  0D08  01CB               	clrf	??_read_intensidad_lumninosa^(0+128)
  3505  0D09  084B               	movf	??_read_intensidad_lumninosa^(0+128),w
  3506  0D0A  00D3               	movwf	read_intensidad_lumninosa@lectura^(0+128)
  3507  0D0B  084C               	movf	(??_read_intensidad_lumninosa+1)^(0+128),w
  3508  0D0C  00D4               	movwf	(read_intensidad_lumninosa@lectura+1)^(0+128)
  3509  0D0D                     l2384:
  3510                           
  3511                           ;sensores.c: 146: lectura += ADRESL;
  3512  0D0D  081E               	movf	30,w	;volatile
  3513  0D0E  00CB               	movwf	??_read_intensidad_lumninosa^(0+128)
  3514  0D0F  01CC               	clrf	(??_read_intensidad_lumninosa^(0+128)+1)
  3515  0D10  084B               	movf	??_read_intensidad_lumninosa^(0+128),w
  3516  0D11  07D3               	addwf	read_intensidad_lumninosa@lectura^(0+128),f
  3517  0D12  1803               	skipnc
  3518  0D13  0AD4               	incf	(read_intensidad_lumninosa@lectura+1)^(0+128),f
  3519  0D14  084C               	movf	(??_read_intensidad_lumninosa+1)^(0+128),w
  3520  0D15  07D4               	addwf	(read_intensidad_lumninosa@lectura+1)^(0+128),f
  3521  0D16                     l2386:
  3522                           
  3523                           ;sensores.c: 148: printf("lectura analogica: %d \r\n",lectura);
  3524  0D16  307A               	movlw	low (STR_3| (0+32768))
  3525  0D17  1283               	bcf	3,5	;RP0=0, select bank0
  3526  0D18  1303               	bcf	3,6	;RP1=0, select bank0
  3527  0D19  00EB               	movwf	printf@f
  3528  0D1A  3082               	movlw	high (STR_3| (0+32768))
  3529  0D1B  00EC               	movwf	printf@f+1
  3530  0D1C  1683               	bsf	3,5	;RP0=1, select bank1
  3531  0D1D  1303               	bcf	3,6	;RP1=0, select bank1
  3532  0D1E  0854               	movf	(read_intensidad_lumninosa@lectura+1)^(0+128),w
  3533  0D1F  1283               	bcf	3,5	;RP0=0, select bank0
  3534  0D20  1303               	bcf	3,6	;RP1=0, select bank0
  3535  0D21  00EE               	movwf	?_printf+3
  3536  0D22  1683               	bsf	3,5	;RP0=1, select bank1
  3537  0D23  1303               	bcf	3,6	;RP1=0, select bank1
  3538  0D24  0853               	movf	read_intensidad_lumninosa@lectura^(0+128),w
  3539  0D25  1283               	bcf	3,5	;RP0=0, select bank0
  3540  0D26  1303               	bcf	3,6	;RP1=0, select bank0
  3541  0D27  00ED               	movwf	?_printf+2
  3542  0D28  120A  118A  25E8  120A  158A  	fcall	_printf
  3543  0D2D                     l2388:
  3544                           
  3545                           ;sensores.c: 150: float lecturaV = ((lectura * 5) / 1024.0)/0.00038;
  3546  0D2D  3000               	movlw	0
  3547  0D2E  1283               	bcf	3,5	;RP0=0, select bank0
  3548  0D2F  1303               	bcf	3,6	;RP1=0, select bank0
  3549  0D30  00BB               	movwf	___ftdiv@f2
  3550  0D31  3080               	movlw	128
  3551  0D32  00BC               	movwf	___ftdiv@f2+1
  3552  0D33  3044               	movlw	68
  3553  0D34  00BD               	movwf	___ftdiv@f2+2
  3554  0D35  1683               	bsf	3,5	;RP0=1, select bank1
  3555  0D36  1303               	bcf	3,6	;RP1=0, select bank1
  3556  0D37  0854               	movf	(read_intensidad_lumninosa@lectura+1)^(0+128),w
  3557  0D38  1283               	bcf	3,5	;RP0=0, select bank0
  3558  0D39  1303               	bcf	3,6	;RP1=0, select bank0
  3559  0D3A  00A1               	movwf	___wmul@multiplier+1
  3560  0D3B  1683               	bsf	3,5	;RP0=1, select bank1
  3561  0D3C  1303               	bcf	3,6	;RP1=0, select bank1
  3562  0D3D  0853               	movf	read_intensidad_lumninosa@lectura^(0+128),w
  3563  0D3E  1283               	bcf	3,5	;RP0=0, select bank0
  3564  0D3F  1303               	bcf	3,6	;RP1=0, select bank0
  3565  0D40  00A0               	movwf	___wmul@multiplier
  3566  0D41  3005               	movlw	5
  3567  0D42  00A2               	movwf	___wmul@multiplicand
  3568  0D43  3000               	movlw	0
  3569  0D44  00A3               	movwf	___wmul@multiplicand+1
  3570  0D45  160A  118A  25CF  120A  158A  	fcall	___wmul
  3571  0D4A  1283               	bcf	3,5	;RP0=0, select bank0
  3572  0D4B  1303               	bcf	3,6	;RP1=0, select bank0
  3573  0D4C  0821               	movf	?___wmul+1,w
  3574  0D4D  00A9               	movwf	___awtoft@c+1
  3575  0D4E  0820               	movf	?___wmul,w
  3576  0D4F  00A8               	movwf	___awtoft@c
  3577  0D50  160A  118A  25F6  120A  158A  	fcall	___awtoft
  3578  0D55  1283               	bcf	3,5	;RP0=0, select bank0
  3579  0D56  1303               	bcf	3,6	;RP1=0, select bank0
  3580  0D57  0828               	movf	?___awtoft,w
  3581  0D58  00BE               	movwf	___ftdiv@f1
  3582  0D59  0829               	movf	?___awtoft+1,w
  3583  0D5A  00BF               	movwf	___ftdiv@f1+1
  3584  0D5B  082A               	movf	?___awtoft+2,w
  3585  0D5C  00C0               	movwf	___ftdiv@f1+2
  3586  0D5D  120A  118A  2020  120A  158A  	fcall	___ftdiv
  3587  0D62  1283               	bcf	3,5	;RP0=0, select bank0
  3588  0D63  1303               	bcf	3,6	;RP1=0, select bank0
  3589  0D64  083B               	movf	?___ftdiv,w
  3590  0D65  1683               	bsf	3,5	;RP0=1, select bank1
  3591  0D66  1303               	bcf	3,6	;RP1=0, select bank1
  3592  0D67  00D0               	movwf	_read_intensidad_lumninosa$1408^(0+128)
  3593  0D68  1283               	bcf	3,5	;RP0=0, select bank0
  3594  0D69  1303               	bcf	3,6	;RP1=0, select bank0
  3595  0D6A  083C               	movf	?___ftdiv+1,w
  3596  0D6B  1683               	bsf	3,5	;RP0=1, select bank1
  3597  0D6C  1303               	bcf	3,6	;RP1=0, select bank1
  3598  0D6D  00D1               	movwf	(_read_intensidad_lumninosa$1408+1)^(0+128)
  3599  0D6E  1283               	bcf	3,5	;RP0=0, select bank0
  3600  0D6F  1303               	bcf	3,6	;RP1=0, select bank0
  3601  0D70  083D               	movf	?___ftdiv+2,w
  3602  0D71  1683               	bsf	3,5	;RP0=1, select bank1
  3603  0D72  1303               	bcf	3,6	;RP1=0, select bank1
  3604  0D73  00D2               	movwf	(_read_intensidad_lumninosa$1408+2)^(0+128)
  3605  0D74                     l2390:
  3606                           
  3607                           ;sensores.c: 150: float lecturaV = ((lectura * 5) / 1024.0)/0.00038;
  3608  0D74  303B               	movlw	59
  3609  0D75  1283               	bcf	3,5	;RP0=0, select bank0
  3610  0D76  1303               	bcf	3,6	;RP1=0, select bank0
  3611  0D77  00BB               	movwf	___ftdiv@f2
  3612  0D78  30C7               	movlw	199
  3613  0D79  00BC               	movwf	___ftdiv@f2+1
  3614  0D7A  3039               	movlw	57
  3615  0D7B  00BD               	movwf	___ftdiv@f2+2
  3616  0D7C  1683               	bsf	3,5	;RP0=1, select bank1
  3617  0D7D  1303               	bcf	3,6	;RP1=0, select bank1
  3618  0D7E  0850               	movf	_read_intensidad_lumninosa$1408^(0+128),w
  3619  0D7F  1283               	bcf	3,5	;RP0=0, select bank0
  3620  0D80  1303               	bcf	3,6	;RP1=0, select bank0
  3621  0D81  00BE               	movwf	___ftdiv@f1
  3622  0D82  1683               	bsf	3,5	;RP0=1, select bank1
  3623  0D83  1303               	bcf	3,6	;RP1=0, select bank1
  3624  0D84  0851               	movf	(_read_intensidad_lumninosa$1408+1)^(0+128),w
  3625  0D85  1283               	bcf	3,5	;RP0=0, select bank0
  3626  0D86  1303               	bcf	3,6	;RP1=0, select bank0
  3627  0D87  00BF               	movwf	___ftdiv@f1+1
  3628  0D88  1683               	bsf	3,5	;RP0=1, select bank1
  3629  0D89  1303               	bcf	3,6	;RP1=0, select bank1
  3630  0D8A  0852               	movf	(_read_intensidad_lumninosa$1408+2)^(0+128),w
  3631  0D8B  1283               	bcf	3,5	;RP0=0, select bank0
  3632  0D8C  1303               	bcf	3,6	;RP1=0, select bank0
  3633  0D8D  00C0               	movwf	___ftdiv@f1+2
  3634  0D8E  120A  118A  2020  120A  158A  	fcall	___ftdiv
  3635  0D93  1283               	bcf	3,5	;RP0=0, select bank0
  3636  0D94  1303               	bcf	3,6	;RP1=0, select bank0
  3637  0D95  083B               	movf	?___ftdiv,w
  3638  0D96  1683               	bsf	3,5	;RP0=1, select bank1
  3639  0D97  1303               	bcf	3,6	;RP1=0, select bank1
  3640  0D98  00CD               	movwf	read_intensidad_lumninosa@lecturaV^(0+128)
  3641  0D99  1283               	bcf	3,5	;RP0=0, select bank0
  3642  0D9A  1303               	bcf	3,6	;RP1=0, select bank0
  3643  0D9B  083C               	movf	?___ftdiv+1,w
  3644  0D9C  1683               	bsf	3,5	;RP0=1, select bank1
  3645  0D9D  1303               	bcf	3,6	;RP1=0, select bank1
  3646  0D9E  00CE               	movwf	(read_intensidad_lumninosa@lecturaV+1)^(0+128)
  3647  0D9F  1283               	bcf	3,5	;RP0=0, select bank0
  3648  0DA0  1303               	bcf	3,6	;RP1=0, select bank0
  3649  0DA1  083D               	movf	?___ftdiv+2,w
  3650  0DA2  1683               	bsf	3,5	;RP0=1, select bank1
  3651  0DA3  1303               	bcf	3,6	;RP1=0, select bank1
  3652  0DA4  00CF               	movwf	(read_intensidad_lumninosa@lecturaV+2)^(0+128)
  3653  0DA5                     l2392:
  3654                           
  3655                           ;sensores.c: 152: lum = lecturaV ;
  3656  0DA5  084D               	movf	read_intensidad_lumninosa@lecturaV^(0+128),w
  3657  0DA6  1283               	bcf	3,5	;RP0=0, select bank0
  3658  0DA7  1303               	bcf	3,6	;RP1=0, select bank0
  3659  0DA8  00DB               	movwf	___fttol@f1
  3660  0DA9  1683               	bsf	3,5	;RP0=1, select bank1
  3661  0DAA  1303               	bcf	3,6	;RP1=0, select bank1
  3662  0DAB  084E               	movf	(read_intensidad_lumninosa@lecturaV+1)^(0+128),w
  3663  0DAC  1283               	bcf	3,5	;RP0=0, select bank0
  3664  0DAD  1303               	bcf	3,6	;RP1=0, select bank0
  3665  0DAE  00DC               	movwf	___fttol@f1+1
  3666  0DAF  1683               	bsf	3,5	;RP0=1, select bank1
  3667  0DB0  1303               	bcf	3,6	;RP1=0, select bank1
  3668  0DB1  084F               	movf	(read_intensidad_lumninosa@lecturaV+2)^(0+128),w
  3669  0DB2  1283               	bcf	3,5	;RP0=0, select bank0
  3670  0DB3  1303               	bcf	3,6	;RP1=0, select bank0
  3671  0DB4  00DD               	movwf	___fttol@f1+2
  3672  0DB5  120A  158A  2122  120A  158A  	fcall	___fttol
  3673  0DBA  1283               	bcf	3,5	;RP0=0, select bank0
  3674  0DBB  1303               	bcf	3,6	;RP1=0, select bank0
  3675  0DBC  085C               	movf	?___fttol+1,w
  3676  0DBD  1683               	bsf	3,5	;RP0=1, select bank1
  3677  0DBE  1303               	bcf	3,6	;RP1=0, select bank1
  3678  0DBF  00B7               	movwf	(_lum+1)^(0+128)
  3679  0DC0  1283               	bcf	3,5	;RP0=0, select bank0
  3680  0DC1  1303               	bcf	3,6	;RP1=0, select bank0
  3681  0DC2  085B               	movf	?___fttol,w
  3682  0DC3  1683               	bsf	3,5	;RP0=1, select bank1
  3683  0DC4  1303               	bcf	3,6	;RP1=0, select bank1
  3684  0DC5  00B6               	movwf	_lum^(0+128)
  3685  0DC6                     l2394:
  3686                           
  3687                           ;sensores.c: 153: printf("Luminosidad: %d \r\n",lum);
  3688  0DC6  30A8               	movlw	low (STR_4| (0+32768))
  3689  0DC7  1283               	bcf	3,5	;RP0=0, select bank0
  3690  0DC8  1303               	bcf	3,6	;RP1=0, select bank0
  3691  0DC9  00EB               	movwf	printf@f
  3692  0DCA  3082               	movlw	high (STR_4| (0+32768))
  3693  0DCB  00EC               	movwf	printf@f+1
  3694  0DCC  1683               	bsf	3,5	;RP0=1, select bank1
  3695  0DCD  1303               	bcf	3,6	;RP1=0, select bank1
  3696  0DCE  0837               	movf	(_lum+1)^(0+128),w
  3697  0DCF  1283               	bcf	3,5	;RP0=0, select bank0
  3698  0DD0  1303               	bcf	3,6	;RP1=0, select bank0
  3699  0DD1  00EE               	movwf	?_printf+3
  3700  0DD2  1683               	bsf	3,5	;RP0=1, select bank1
  3701  0DD3  1303               	bcf	3,6	;RP1=0, select bank1
  3702  0DD4  0836               	movf	_lum^(0+128),w
  3703  0DD5  1283               	bcf	3,5	;RP0=0, select bank0
  3704  0DD6  1303               	bcf	3,6	;RP1=0, select bank0
  3705  0DD7  00ED               	movwf	?_printf+2
  3706  0DD8  120A  118A  25E8  120A  158A  	fcall	_printf
  3707  0DDD                     l72:
  3708  0DDD  0008               	return
  3709  0DDE                     __end_of_read_intensidad_lumninosa:
  3710                           
  3711                           	psect	text10
  3712  0C02                     __ptext10:	
  3713 ;; *************** function _read_humedad *****************
  3714 ;; Defined at:
  3715 ;;		line 106 in file "sensores.c"
  3716 ;; Parameters:    Size  Location     Type
  3717 ;;		None
  3718 ;; Auto vars:     Size  Location     Type
  3719 ;;  lecturaV        3   11[BANK1 ] float 
  3720 ;;  lectura         2   17[BANK1 ] int 
  3721 ;; Return value:  Size  Location     Type
  3722 ;;                  1    wreg      void 
  3723 ;; Registers used:
  3724 ;;		wreg, fsr0l, fsr0h, status,2, status,0, btemp+1, pclath, cstack
  3725 ;; Tracked objects:
  3726 ;;		On entry : 0/0
  3727 ;;		On exit  : 0/0
  3728 ;;		Unchanged: 0/0
  3729 ;; Data sizes:     COMMON   BANK0   BANK1   BANK3   BANK2
  3730 ;;      Params:         0       0       0       0       0
  3731 ;;      Locals:         0       0       8       0       0
  3732 ;;      Temps:          0       0       2       0       0
  3733 ;;      Totals:         0       0      10       0       0
  3734 ;;Total ram usage:       10 bytes
  3735 ;; Hardware stack levels used:    1
  3736 ;; Hardware stack levels required when called:    4
  3737 ;; This function calls:
  3738 ;;		___awtoft
  3739 ;;		___ftadd
  3740 ;;		___ftdiv
  3741 ;;		___fttol
  3742 ;;		___wmul
  3743 ;;		_printf
  3744 ;; This function is called by:
  3745 ;;		_main
  3746 ;; This function uses a non-reentrant model
  3747 ;;
  3748                           
  3749                           
  3750                           ;psect for function _read_humedad
  3751  0C02                     _read_humedad:
  3752  0C02                     l2350:	
  3753                           ;incstack = 0
  3754                           ; Regs used in _read_humedad: [wreg-fsr0h+status,2+status,0+btemp+1+pclath+cstack]
  3755                           
  3756  0C02                     l2352:
  3757                           
  3758                           ;sensores.c: 109: ADCON0bits.CHS = 0b1010;
  3759  0C02  1283               	bcf	3,5	;RP0=0, select bank0
  3760  0C03  1303               	bcf	3,6	;RP1=0, select bank0
  3761  0C04  081F               	movf	31,w	;volatile
  3762  0C05  39C3               	andlw	-61
  3763  0C06  3828               	iorlw	40
  3764  0C07  009F               	movwf	31	;volatile
  3765  0C08                     l2354:
  3766                           
  3767                           ;sensores.c: 111: ADCON0bits.GO=1;
  3768  0C08  149F               	bsf	31,1	;volatile
  3769  0C09                     l2356:	
  3770                           ;sensores.c: 114: while (ADCready == 0);
  3771                           
  3772  0C09  1683               	bsf	3,5	;RP0=1, select bank1
  3773  0C0A  1303               	bcf	3,6	;RP1=0, select bank1
  3774  0C0B  0830               	movf	_ADCready^(0+128),w
  3775  0C0C  0431               	iorwf	(_ADCready+1)^(0+128),w
  3776  0C0D  1903               	btfsc	3,2
  3777  0C0E  2C10               	goto	u2591
  3778  0C0F  2C11               	goto	u2590
  3779  0C10                     u2591:
  3780  0C10  2C09               	goto	l2356
  3781  0C11                     u2590:
  3782  0C11                     l2358:
  3783                           
  3784                           ;sensores.c: 115: ADCready = 0;
  3785  0C11  01B0               	clrf	_ADCready^(0+128)
  3786  0C12  01B1               	clrf	(_ADCready+1)^(0+128)
  3787  0C13                     l2360:
  3788                           
  3789                           ;sensores.c: 117: lectura = ADRESH << 8;
  3790  0C13  1283               	bcf	3,5	;RP0=0, select bank0
  3791  0C14  1303               	bcf	3,6	;RP1=0, select bank0
  3792  0C15  081E               	movf	30,w	;volatile
  3793  0C16  1683               	bsf	3,5	;RP0=1, select bank1
  3794  0C17  1303               	bcf	3,6	;RP1=0, select bank1
  3795  0C18  00CB               	movwf	??_read_humedad^(0+128)
  3796  0C19  01CC               	clrf	(??_read_humedad^(0+128)+1)
  3797  0C1A  084B               	movf	??_read_humedad^(0+128),w
  3798  0C1B  00CC               	movwf	(??_read_humedad^(0+128)+1)
  3799  0C1C  01CB               	clrf	??_read_humedad^(0+128)
  3800  0C1D  084B               	movf	??_read_humedad^(0+128),w
  3801  0C1E  00D3               	movwf	read_humedad@lectura^(0+128)
  3802  0C1F  084C               	movf	(??_read_humedad+1)^(0+128),w
  3803  0C20  00D4               	movwf	(read_humedad@lectura+1)^(0+128)
  3804  0C21                     l2362:
  3805                           
  3806                           ;sensores.c: 118: lectura += ADRESL;
  3807  0C21  081E               	movf	30,w	;volatile
  3808  0C22  00CB               	movwf	??_read_humedad^(0+128)
  3809  0C23  01CC               	clrf	(??_read_humedad^(0+128)+1)
  3810  0C24  084B               	movf	??_read_humedad^(0+128),w
  3811  0C25  07D3               	addwf	read_humedad@lectura^(0+128),f
  3812  0C26  1803               	skipnc
  3813  0C27  0AD4               	incf	(read_humedad@lectura+1)^(0+128),f
  3814  0C28  084C               	movf	(??_read_humedad+1)^(0+128),w
  3815  0C29  07D4               	addwf	(read_humedad@lectura+1)^(0+128),f
  3816  0C2A                     l2364:
  3817                           
  3818                           ;sensores.c: 121: float lecturaV = (((lectura * 5) / 1024.0) -0.826)/0.0315;
  3819  0C2A  3075               	movlw	117
  3820  0C2B  1283               	bcf	3,5	;RP0=0, select bank0
  3821  0C2C  1303               	bcf	3,6	;RP1=0, select bank0
  3822  0C2D  00AE               	movwf	___ftadd@f1
  3823  0C2E  3053               	movlw	83
  3824  0C2F  00AF               	movwf	___ftadd@f1+1
  3825  0C30  30BF               	movlw	191
  3826  0C31  00B0               	movwf	___ftadd@f1+2
  3827  0C32  3000               	movlw	0
  3828  0C33  00BB               	movwf	___ftdiv@f2
  3829  0C34  3080               	movlw	128
  3830  0C35  00BC               	movwf	___ftdiv@f2+1
  3831  0C36  3044               	movlw	68
  3832  0C37  00BD               	movwf	___ftdiv@f2+2
  3833  0C38  1683               	bsf	3,5	;RP0=1, select bank1
  3834  0C39  1303               	bcf	3,6	;RP1=0, select bank1
  3835  0C3A  0854               	movf	(read_humedad@lectura+1)^(0+128),w
  3836  0C3B  1283               	bcf	3,5	;RP0=0, select bank0
  3837  0C3C  1303               	bcf	3,6	;RP1=0, select bank0
  3838  0C3D  00A1               	movwf	___wmul@multiplier+1
  3839  0C3E  1683               	bsf	3,5	;RP0=1, select bank1
  3840  0C3F  1303               	bcf	3,6	;RP1=0, select bank1
  3841  0C40  0853               	movf	read_humedad@lectura^(0+128),w
  3842  0C41  1283               	bcf	3,5	;RP0=0, select bank0
  3843  0C42  1303               	bcf	3,6	;RP1=0, select bank0
  3844  0C43  00A0               	movwf	___wmul@multiplier
  3845  0C44  3005               	movlw	5
  3846  0C45  00A2               	movwf	___wmul@multiplicand
  3847  0C46  3000               	movlw	0
  3848  0C47  00A3               	movwf	___wmul@multiplicand+1
  3849  0C48  160A  118A  25CF  120A  158A  	fcall	___wmul
  3850  0C4D  1283               	bcf	3,5	;RP0=0, select bank0
  3851  0C4E  1303               	bcf	3,6	;RP1=0, select bank0
  3852  0C4F  0821               	movf	?___wmul+1,w
  3853  0C50  00A9               	movwf	___awtoft@c+1
  3854  0C51  0820               	movf	?___wmul,w
  3855  0C52  00A8               	movwf	___awtoft@c
  3856  0C53  160A  118A  25F6  120A  158A  	fcall	___awtoft
  3857  0C58  1283               	bcf	3,5	;RP0=0, select bank0
  3858  0C59  1303               	bcf	3,6	;RP1=0, select bank0
  3859  0C5A  0828               	movf	?___awtoft,w
  3860  0C5B  00BE               	movwf	___ftdiv@f1
  3861  0C5C  0829               	movf	?___awtoft+1,w
  3862  0C5D  00BF               	movwf	___ftdiv@f1+1
  3863  0C5E  082A               	movf	?___awtoft+2,w
  3864  0C5F  00C0               	movwf	___ftdiv@f1+2
  3865  0C60  120A  118A  2020  120A  158A  	fcall	___ftdiv
  3866  0C65  1283               	bcf	3,5	;RP0=0, select bank0
  3867  0C66  1303               	bcf	3,6	;RP1=0, select bank0
  3868  0C67  083B               	movf	?___ftdiv,w
  3869  0C68  00B1               	movwf	___ftadd@f2
  3870  0C69  083C               	movf	?___ftdiv+1,w
  3871  0C6A  00B2               	movwf	___ftadd@f2+1
  3872  0C6B  083D               	movf	?___ftdiv+2,w
  3873  0C6C  00B3               	movwf	___ftadd@f2+2
  3874  0C6D  120A  118A  24B2  120A  158A  	fcall	___ftadd
  3875  0C72  1283               	bcf	3,5	;RP0=0, select bank0
  3876  0C73  1303               	bcf	3,6	;RP1=0, select bank0
  3877  0C74  082E               	movf	?___ftadd,w
  3878  0C75  1683               	bsf	3,5	;RP0=1, select bank1
  3879  0C76  1303               	bcf	3,6	;RP1=0, select bank1
  3880  0C77  00D0               	movwf	_read_humedad$1407^(0+128)
  3881  0C78  1283               	bcf	3,5	;RP0=0, select bank0
  3882  0C79  1303               	bcf	3,6	;RP1=0, select bank0
  3883  0C7A  082F               	movf	?___ftadd+1,w
  3884  0C7B  1683               	bsf	3,5	;RP0=1, select bank1
  3885  0C7C  1303               	bcf	3,6	;RP1=0, select bank1
  3886  0C7D  00D1               	movwf	(_read_humedad$1407+1)^(0+128)
  3887  0C7E  1283               	bcf	3,5	;RP0=0, select bank0
  3888  0C7F  1303               	bcf	3,6	;RP1=0, select bank0
  3889  0C80  0830               	movf	?___ftadd+2,w
  3890  0C81  1683               	bsf	3,5	;RP0=1, select bank1
  3891  0C82  1303               	bcf	3,6	;RP1=0, select bank1
  3892  0C83  00D2               	movwf	(_read_humedad$1407+2)^(0+128)
  3893  0C84                     l2366:
  3894                           
  3895                           ;sensores.c: 121: float lecturaV = (((lectura * 5) / 1024.0) -0.826)/0.0315;
  3896  0C84  3006               	movlw	6
  3897  0C85  1283               	bcf	3,5	;RP0=0, select bank0
  3898  0C86  1303               	bcf	3,6	;RP1=0, select bank0
  3899  0C87  00BB               	movwf	___ftdiv@f2
  3900  0C88  3001               	movlw	1
  3901  0C89  00BC               	movwf	___ftdiv@f2+1
  3902  0C8A  303D               	movlw	61
  3903  0C8B  00BD               	movwf	___ftdiv@f2+2
  3904  0C8C  1683               	bsf	3,5	;RP0=1, select bank1
  3905  0C8D  1303               	bcf	3,6	;RP1=0, select bank1
  3906  0C8E  0850               	movf	_read_humedad$1407^(0+128),w
  3907  0C8F  1283               	bcf	3,5	;RP0=0, select bank0
  3908  0C90  1303               	bcf	3,6	;RP1=0, select bank0
  3909  0C91  00BE               	movwf	___ftdiv@f1
  3910  0C92  1683               	bsf	3,5	;RP0=1, select bank1
  3911  0C93  1303               	bcf	3,6	;RP1=0, select bank1
  3912  0C94  0851               	movf	(_read_humedad$1407+1)^(0+128),w
  3913  0C95  1283               	bcf	3,5	;RP0=0, select bank0
  3914  0C96  1303               	bcf	3,6	;RP1=0, select bank0
  3915  0C97  00BF               	movwf	___ftdiv@f1+1
  3916  0C98  1683               	bsf	3,5	;RP0=1, select bank1
  3917  0C99  1303               	bcf	3,6	;RP1=0, select bank1
  3918  0C9A  0852               	movf	(_read_humedad$1407+2)^(0+128),w
  3919  0C9B  1283               	bcf	3,5	;RP0=0, select bank0
  3920  0C9C  1303               	bcf	3,6	;RP1=0, select bank0
  3921  0C9D  00C0               	movwf	___ftdiv@f1+2
  3922  0C9E  120A  118A  2020  120A  158A  	fcall	___ftdiv
  3923  0CA3  1283               	bcf	3,5	;RP0=0, select bank0
  3924  0CA4  1303               	bcf	3,6	;RP1=0, select bank0
  3925  0CA5  083B               	movf	?___ftdiv,w
  3926  0CA6  1683               	bsf	3,5	;RP0=1, select bank1
  3927  0CA7  1303               	bcf	3,6	;RP1=0, select bank1
  3928  0CA8  00CD               	movwf	read_humedad@lecturaV^(0+128)
  3929  0CA9  1283               	bcf	3,5	;RP0=0, select bank0
  3930  0CAA  1303               	bcf	3,6	;RP1=0, select bank0
  3931  0CAB  083C               	movf	?___ftdiv+1,w
  3932  0CAC  1683               	bsf	3,5	;RP0=1, select bank1
  3933  0CAD  1303               	bcf	3,6	;RP1=0, select bank1
  3934  0CAE  00CE               	movwf	(read_humedad@lecturaV+1)^(0+128)
  3935  0CAF  1283               	bcf	3,5	;RP0=0, select bank0
  3936  0CB0  1303               	bcf	3,6	;RP1=0, select bank0
  3937  0CB1  083D               	movf	?___ftdiv+2,w
  3938  0CB2  1683               	bsf	3,5	;RP0=1, select bank1
  3939  0CB3  1303               	bcf	3,6	;RP1=0, select bank1
  3940  0CB4  00CF               	movwf	(read_humedad@lecturaV+2)^(0+128)
  3941  0CB5                     l2368:
  3942                           
  3943                           ;sensores.c: 123: humedad = (int) lecturaV;
  3944  0CB5  084D               	movf	read_humedad@lecturaV^(0+128),w
  3945  0CB6  1283               	bcf	3,5	;RP0=0, select bank0
  3946  0CB7  1303               	bcf	3,6	;RP1=0, select bank0
  3947  0CB8  00DB               	movwf	___fttol@f1
  3948  0CB9  1683               	bsf	3,5	;RP0=1, select bank1
  3949  0CBA  1303               	bcf	3,6	;RP1=0, select bank1
  3950  0CBB  084E               	movf	(read_humedad@lecturaV+1)^(0+128),w
  3951  0CBC  1283               	bcf	3,5	;RP0=0, select bank0
  3952  0CBD  1303               	bcf	3,6	;RP1=0, select bank0
  3953  0CBE  00DC               	movwf	___fttol@f1+1
  3954  0CBF  1683               	bsf	3,5	;RP0=1, select bank1
  3955  0CC0  1303               	bcf	3,6	;RP1=0, select bank1
  3956  0CC1  084F               	movf	(read_humedad@lecturaV+2)^(0+128),w
  3957  0CC2  1283               	bcf	3,5	;RP0=0, select bank0
  3958  0CC3  1303               	bcf	3,6	;RP1=0, select bank0
  3959  0CC4  00DD               	movwf	___fttol@f1+2
  3960  0CC5  120A  158A  2122  120A  158A  	fcall	___fttol
  3961  0CCA  1283               	bcf	3,5	;RP0=0, select bank0
  3962  0CCB  1303               	bcf	3,6	;RP1=0, select bank0
  3963  0CCC  085C               	movf	?___fttol+1,w
  3964  0CCD  1683               	bsf	3,5	;RP0=1, select bank1
  3965  0CCE  1303               	bcf	3,6	;RP1=0, select bank1
  3966  0CCF  00B9               	movwf	(_humedad+1)^(0+128)
  3967  0CD0  1283               	bcf	3,5	;RP0=0, select bank0
  3968  0CD1  1303               	bcf	3,6	;RP1=0, select bank0
  3969  0CD2  085B               	movf	?___fttol,w
  3970  0CD3  1683               	bsf	3,5	;RP0=1, select bank1
  3971  0CD4  1303               	bcf	3,6	;RP1=0, select bank1
  3972  0CD5  00B8               	movwf	_humedad^(0+128)
  3973  0CD6                     l2370:
  3974                           
  3975                           ;sensores.c: 126: printf("Humedad: %d \r\n",humedad);
  3976  0CD6  30DD               	movlw	low (STR_2| (0+32768))
  3977  0CD7  1283               	bcf	3,5	;RP0=0, select bank0
  3978  0CD8  1303               	bcf	3,6	;RP1=0, select bank0
  3979  0CD9  00EB               	movwf	printf@f
  3980  0CDA  3082               	movlw	high (STR_2| (0+32768))
  3981  0CDB  00EC               	movwf	printf@f+1
  3982  0CDC  1683               	bsf	3,5	;RP0=1, select bank1
  3983  0CDD  1303               	bcf	3,6	;RP1=0, select bank1
  3984  0CDE  0839               	movf	(_humedad+1)^(0+128),w
  3985  0CDF  1283               	bcf	3,5	;RP0=0, select bank0
  3986  0CE0  1303               	bcf	3,6	;RP1=0, select bank0
  3987  0CE1  00EE               	movwf	?_printf+3
  3988  0CE2  1683               	bsf	3,5	;RP0=1, select bank1
  3989  0CE3  1303               	bcf	3,6	;RP1=0, select bank1
  3990  0CE4  0838               	movf	_humedad^(0+128),w
  3991  0CE5  1283               	bcf	3,5	;RP0=0, select bank0
  3992  0CE6  1303               	bcf	3,6	;RP1=0, select bank0
  3993  0CE7  00ED               	movwf	?_printf+2
  3994  0CE8  120A  118A  25E8  120A  158A  	fcall	_printf
  3995  0CED                     l63:
  3996  0CED  0008               	return
  3997  0CEE                     __end_of_read_humedad:
  3998                           
  3999                           	psect	text11
  4000  04B2                     __ptext11:	
  4001 ;; *************** function ___ftadd *****************
  4002 ;; Defined at:
  4003 ;;		line 86 in file "C:\Program Files\Microchip\xc8\v2.30\pic\sources\c90\common\ftadd.c"
  4004 ;; Parameters:    Size  Location     Type
  4005 ;;  f1              3   14[BANK0 ] float 
  4006 ;;  f2              3   17[BANK0 ] float 
  4007 ;; Auto vars:     Size  Location     Type
  4008 ;;  exp1            1   26[BANK0 ] unsigned char 
  4009 ;;  exp2            1   25[BANK0 ] unsigned char 
  4010 ;;  sign            1   24[BANK0 ] unsigned char 
  4011 ;; Return value:  Size  Location     Type
  4012 ;;                  3   14[BANK0 ] float 
  4013 ;; Registers used:
  4014 ;;		wreg, status,2, status,0, pclath, cstack
  4015 ;; Tracked objects:
  4016 ;;		On entry : 0/0
  4017 ;;		On exit  : 0/0
  4018 ;;		Unchanged: 0/0
  4019 ;; Data sizes:     COMMON   BANK0   BANK1   BANK3   BANK2
  4020 ;;      Params:         0       6       0       0       0
  4021 ;;      Locals:         0       3       0       0       0
  4022 ;;      Temps:          0       4       0       0       0
  4023 ;;      Totals:         0      13       0       0       0
  4024 ;;Total ram usage:       13 bytes
  4025 ;; Hardware stack levels used:    1
  4026 ;; Hardware stack levels required when called:    3
  4027 ;; This function calls:
  4028 ;;		___ftpack
  4029 ;; This function is called by:
  4030 ;;		_read_humedad
  4031 ;;		___ftsub
  4032 ;; This function uses a non-reentrant model
  4033 ;;
  4034                           
  4035                           
  4036                           ;psect for function ___ftadd
  4037  04B2                     ___ftadd:
  4038  04B2                     l1888:	
  4039                           ;incstack = 0
  4040                           ; Regs used in ___ftadd: [wreg+status,2+status,0+pclath+cstack]
  4041                           
  4042  04B2  1283               	bcf	3,5	;RP0=0, select bank0
  4043  04B3  1303               	bcf	3,6	;RP1=0, select bank0
  4044  04B4  082E               	movf	___ftadd@f1,w
  4045  04B5  00B4               	movwf	??___ftadd
  4046  04B6  082F               	movf	___ftadd@f1+1,w
  4047  04B7  00B5               	movwf	??___ftadd+1
  4048  04B8  0830               	movf	___ftadd@f1+2,w
  4049  04B9  00B6               	movwf	??___ftadd+2
  4050  04BA  1003               	clrc
  4051  04BB  0D35               	rlf	??___ftadd+1,w
  4052  04BC  0D36               	rlf	??___ftadd+2,w
  4053  04BD  00B7               	movwf	??___ftadd+3
  4054  04BE  0837               	movf	??___ftadd+3,w
  4055  04BF  00BA               	movwf	___ftadd@exp1
  4056  04C0  0831               	movf	___ftadd@f2,w
  4057  04C1  00B4               	movwf	??___ftadd
  4058  04C2  0832               	movf	___ftadd@f2+1,w
  4059  04C3  00B5               	movwf	??___ftadd+1
  4060  04C4  0833               	movf	___ftadd@f2+2,w
  4061  04C5  00B6               	movwf	??___ftadd+2
  4062  04C6  1003               	clrc
  4063  04C7  0D35               	rlf	??___ftadd+1,w
  4064  04C8  0D36               	rlf	??___ftadd+2,w
  4065  04C9  00B7               	movwf	??___ftadd+3
  4066  04CA  0837               	movf	??___ftadd+3,w
  4067  04CB  00B9               	movwf	___ftadd@exp2
  4068  04CC  083A               	movf	___ftadd@exp1,w
  4069  04CD  1903               	btfsc	3,2
  4070  04CE  2CD0               	goto	u1731
  4071  04CF  2CD1               	goto	u1730
  4072  04D0                     u1731:
  4073  04D0  2CE1               	goto	l1894
  4074  04D1                     u1730:
  4075  04D1                     l1890:
  4076  04D1  0839               	movf	___ftadd@exp2,w
  4077  04D2  023A               	subwf	___ftadd@exp1,w
  4078  04D3  1803               	skipnc
  4079  04D4  2CD6               	goto	u1741
  4080  04D5  2CD7               	goto	u1740
  4081  04D6                     u1741:
  4082  04D6  2CE8               	goto	l1898
  4083  04D7                     u1740:
  4084  04D7                     l1892:
  4085  04D7  0839               	movf	___ftadd@exp2,w
  4086  04D8  00B4               	movwf	??___ftadd
  4087  04D9  083A               	movf	___ftadd@exp1,w
  4088  04DA  02B4               	subwf	??___ftadd,f
  4089  04DB  3019               	movlw	25
  4090  04DC  0234               	subwf	??___ftadd,w
  4091  04DD  1C03               	skipc
  4092  04DE  2CE0               	goto	u1751
  4093  04DF  2CE1               	goto	u1750
  4094  04E0                     u1751:
  4095  04E0  2CE8               	goto	l1898
  4096  04E1                     u1750:
  4097  04E1                     l1894:
  4098  04E1  0831               	movf	___ftadd@f2,w
  4099  04E2  00AE               	movwf	?___ftadd
  4100  04E3  0832               	movf	___ftadd@f2+1,w
  4101  04E4  00AF               	movwf	?___ftadd+1
  4102  04E5  0833               	movf	___ftadd@f2+2,w
  4103  04E6  00B0               	movwf	?___ftadd+2
  4104  04E7  2DE7               	goto	l696
  4105  04E8                     l1898:
  4106  04E8  0839               	movf	___ftadd@exp2,w
  4107  04E9  1903               	btfsc	3,2
  4108  04EA  2CEC               	goto	u1761
  4109  04EB  2CED               	goto	u1760
  4110  04EC                     u1761:
  4111  04EC  2CFD               	goto	l699
  4112  04ED                     u1760:
  4113  04ED                     l1900:
  4114  04ED  083A               	movf	___ftadd@exp1,w
  4115  04EE  0239               	subwf	___ftadd@exp2,w
  4116  04EF  1803               	skipnc
  4117  04F0  2CF2               	goto	u1771
  4118  04F1  2CF3               	goto	u1770
  4119  04F2                     u1771:
  4120  04F2  2CFE               	goto	l1904
  4121  04F3                     u1770:
  4122  04F3                     l1902:
  4123  04F3  083A               	movf	___ftadd@exp1,w
  4124  04F4  00B4               	movwf	??___ftadd
  4125  04F5  0839               	movf	___ftadd@exp2,w
  4126  04F6  02B4               	subwf	??___ftadd,f
  4127  04F7  3019               	movlw	25
  4128  04F8  0234               	subwf	??___ftadd,w
  4129  04F9  1C03               	skipc
  4130  04FA  2CFC               	goto	u1781
  4131  04FB  2CFD               	goto	u1780
  4132  04FC                     u1781:
  4133  04FC  2CFE               	goto	l1904
  4134  04FD                     u1780:
  4135  04FD                     l699:
  4136  04FD  2DE7               	goto	l696
  4137  04FE                     l1904:
  4138  04FE  3006               	movlw	6
  4139  04FF  00B4               	movwf	??___ftadd
  4140  0500  0834               	movf	??___ftadd,w
  4141  0501  00B8               	movwf	___ftadd@sign
  4142  0502                     l1906:
  4143  0502  1FB0               	btfss	___ftadd@f1+2,7
  4144  0503  2D05               	goto	u1791
  4145  0504  2D06               	goto	u1790
  4146  0505                     u1791:
  4147  0505  2D07               	goto	l700
  4148  0506                     u1790:
  4149  0506                     l1908:
  4150  0506  17B8               	bsf	___ftadd@sign,7
  4151  0507                     l700:
  4152  0507  1FB3               	btfss	___ftadd@f2+2,7
  4153  0508  2D0A               	goto	u1801
  4154  0509  2D0B               	goto	u1800
  4155  050A                     u1801:
  4156  050A  2D0C               	goto	l701
  4157  050B                     u1800:
  4158  050B                     l1910:
  4159  050B  1738               	bsf	___ftadd@sign,6
  4160  050C                     l701:
  4161  050C  17AF               	bsf	___ftadd@f1+1,7
  4162  050D                     l1912:
  4163  050D  30FF               	movlw	255
  4164  050E  05AE               	andwf	___ftadd@f1,f
  4165  050F  30FF               	movlw	255
  4166  0510  05AF               	andwf	___ftadd@f1+1,f
  4167  0511  3000               	movlw	0
  4168  0512  05B0               	andwf	___ftadd@f1+2,f
  4169  0513                     l1914:
  4170  0513  17B2               	bsf	___ftadd@f2+1,7
  4171  0514  30FF               	movlw	255
  4172  0515  05B1               	andwf	___ftadd@f2,f
  4173  0516  30FF               	movlw	255
  4174  0517  05B2               	andwf	___ftadd@f2+1,f
  4175  0518  3000               	movlw	0
  4176  0519  05B3               	andwf	___ftadd@f2+2,f
  4177  051A  0839               	movf	___ftadd@exp2,w
  4178  051B  023A               	subwf	___ftadd@exp1,w
  4179  051C  1803               	skipnc
  4180  051D  2D1F               	goto	u1811
  4181  051E  2D20               	goto	u1810
  4182  051F                     u1811:
  4183  051F  2D4C               	goto	l1926
  4184  0520                     u1810:
  4185  0520                     l1916:
  4186  0520  3001               	movlw	1
  4187  0521                     u1825:
  4188  0521  1003               	clrc
  4189  0522  0DB1               	rlf	___ftadd@f2,f
  4190  0523  0DB2               	rlf	___ftadd@f2+1,f
  4191  0524  0DB3               	rlf	___ftadd@f2+2,f
  4192  0525  3EFF               	addlw	-1
  4193  0526  1D03               	skipz
  4194  0527  2D21               	goto	u1825
  4195  0528  3001               	movlw	1
  4196  0529  02B9               	subwf	___ftadd@exp2,f
  4197  052A                     l1918:
  4198  052A  0839               	movf	___ftadd@exp2,w
  4199  052B  063A               	xorwf	___ftadd@exp1,w
  4200  052C  1903               	skipnz
  4201  052D  2D2F               	goto	u1831
  4202  052E  2D30               	goto	u1830
  4203  052F                     u1831:
  4204  052F  2D45               	goto	l1924
  4205  0530                     u1830:
  4206  0530                     l1920:
  4207  0530  3001               	movlw	1
  4208  0531  02B8               	subwf	___ftadd@sign,f
  4209  0532  0838               	movf	___ftadd@sign,w
  4210  0533  3907               	andlw	7
  4211  0534  1D03               	btfss	3,2
  4212  0535  2D37               	goto	u1841
  4213  0536  2D38               	goto	u1840
  4214  0537                     u1841:
  4215  0537  2D20               	goto	l1916
  4216  0538                     u1840:
  4217  0538  2D45               	goto	l1924
  4218  0539                     l1922:
  4219  0539  3001               	movlw	1
  4220  053A                     u1855:
  4221  053A  1003               	clrc
  4222  053B  0CB0               	rrf	___ftadd@f1+2,f
  4223  053C  0CAF               	rrf	___ftadd@f1+1,f
  4224  053D  0CAE               	rrf	___ftadd@f1,f
  4225  053E  3EFF               	addlw	-1
  4226  053F  1D03               	skipz
  4227  0540  2D3A               	goto	u1855
  4228  0541  3001               	movlw	1
  4229  0542  00B4               	movwf	??___ftadd
  4230  0543  0834               	movf	??___ftadd,w
  4231  0544  07BA               	addwf	___ftadd@exp1,f
  4232  0545                     l1924:
  4233  0545  083A               	movf	___ftadd@exp1,w
  4234  0546  0639               	xorwf	___ftadd@exp2,w
  4235  0547  1D03               	skipz
  4236  0548  2D4A               	goto	u1861
  4237  0549  2D4B               	goto	u1860
  4238  054A                     u1861:
  4239  054A  2D39               	goto	l1922
  4240  054B                     u1860:
  4241  054B  2D7D               	goto	l710
  4242  054C                     l1926:
  4243  054C  083A               	movf	___ftadd@exp1,w
  4244  054D  0239               	subwf	___ftadd@exp2,w
  4245  054E  1803               	skipnc
  4246  054F  2D51               	goto	u1871
  4247  0550  2D52               	goto	u1870
  4248  0551                     u1871:
  4249  0551  2D7D               	goto	l710
  4250  0552                     u1870:
  4251  0552                     l1928:
  4252  0552  3001               	movlw	1
  4253  0553                     u1885:
  4254  0553  1003               	clrc
  4255  0554  0DAE               	rlf	___ftadd@f1,f
  4256  0555  0DAF               	rlf	___ftadd@f1+1,f
  4257  0556  0DB0               	rlf	___ftadd@f1+2,f
  4258  0557  3EFF               	addlw	-1
  4259  0558  1D03               	skipz
  4260  0559  2D53               	goto	u1885
  4261  055A  3001               	movlw	1
  4262  055B  02BA               	subwf	___ftadd@exp1,f
  4263  055C                     l1930:
  4264  055C  0839               	movf	___ftadd@exp2,w
  4265  055D  063A               	xorwf	___ftadd@exp1,w
  4266  055E  1903               	skipnz
  4267  055F  2D61               	goto	u1891
  4268  0560  2D62               	goto	u1890
  4269  0561                     u1891:
  4270  0561  2D77               	goto	l1936
  4271  0562                     u1890:
  4272  0562                     l1932:
  4273  0562  3001               	movlw	1
  4274  0563  02B8               	subwf	___ftadd@sign,f
  4275  0564  0838               	movf	___ftadd@sign,w
  4276  0565  3907               	andlw	7
  4277  0566  1D03               	btfss	3,2
  4278  0567  2D69               	goto	u1901
  4279  0568  2D6A               	goto	u1900
  4280  0569                     u1901:
  4281  0569  2D52               	goto	l1928
  4282  056A                     u1900:
  4283  056A  2D77               	goto	l1936
  4284  056B                     l1934:
  4285  056B  3001               	movlw	1
  4286  056C                     u1915:
  4287  056C  1003               	clrc
  4288  056D  0CB3               	rrf	___ftadd@f2+2,f
  4289  056E  0CB2               	rrf	___ftadd@f2+1,f
  4290  056F  0CB1               	rrf	___ftadd@f2,f
  4291  0570  3EFF               	addlw	-1
  4292  0571  1D03               	skipz
  4293  0572  2D6C               	goto	u1915
  4294  0573  3001               	movlw	1
  4295  0574  00B4               	movwf	??___ftadd
  4296  0575  0834               	movf	??___ftadd,w
  4297  0576  07B9               	addwf	___ftadd@exp2,f
  4298  0577                     l1936:
  4299  0577  083A               	movf	___ftadd@exp1,w
  4300  0578  0639               	xorwf	___ftadd@exp2,w
  4301  0579  1D03               	skipz
  4302  057A  2D7C               	goto	u1921
  4303  057B  2D7D               	goto	u1920
  4304  057C                     u1921:
  4305  057C  2D6B               	goto	l1934
  4306  057D                     u1920:
  4307  057D                     l710:
  4308  057D  1FB8               	btfss	___ftadd@sign,7
  4309  057E  2D80               	goto	u1931
  4310  057F  2D81               	goto	u1930
  4311  0580                     u1931:
  4312  0580  2D91               	goto	l1940
  4313  0581                     u1930:
  4314  0581                     l1938:
  4315  0581  30FF               	movlw	255
  4316  0582  06AE               	xorwf	___ftadd@f1,f
  4317  0583  30FF               	movlw	255
  4318  0584  06AF               	xorwf	___ftadd@f1+1,f
  4319  0585  30FF               	movlw	255
  4320  0586  06B0               	xorwf	___ftadd@f1+2,f
  4321  0587  3001               	movlw	1
  4322  0588  07AE               	addwf	___ftadd@f1,f
  4323  0589  3000               	movlw	0
  4324  058A  1803               	skipnc
  4325  058B  3001               	movlw	1
  4326  058C  07AF               	addwf	___ftadd@f1+1,f
  4327  058D  3000               	movlw	0
  4328  058E  1803               	skipnc
  4329  058F  3001               	movlw	1
  4330  0590  07B0               	addwf	___ftadd@f1+2,f
  4331  0591                     l1940:
  4332  0591  1F38               	btfss	___ftadd@sign,6
  4333  0592  2D94               	goto	u1941
  4334  0593  2D95               	goto	u1940
  4335  0594                     u1941:
  4336  0594  2DA5               	goto	l1944
  4337  0595                     u1940:
  4338  0595                     l1942:
  4339  0595  30FF               	movlw	255
  4340  0596  06B1               	xorwf	___ftadd@f2,f
  4341  0597  30FF               	movlw	255
  4342  0598  06B2               	xorwf	___ftadd@f2+1,f
  4343  0599  30FF               	movlw	255
  4344  059A  06B3               	xorwf	___ftadd@f2+2,f
  4345  059B  3001               	movlw	1
  4346  059C  07B1               	addwf	___ftadd@f2,f
  4347  059D  3000               	movlw	0
  4348  059E  1803               	skipnc
  4349  059F  3001               	movlw	1
  4350  05A0  07B2               	addwf	___ftadd@f2+1,f
  4351  05A1  3000               	movlw	0
  4352  05A2  1803               	skipnc
  4353  05A3  3001               	movlw	1
  4354  05A4  07B3               	addwf	___ftadd@f2+2,f
  4355  05A5                     l1944:
  4356  05A5  01B8               	clrf	___ftadd@sign
  4357  05A6                     l1946:
  4358  05A6  082E               	movf	___ftadd@f1,w
  4359  05A7  07B1               	addwf	___ftadd@f2,f
  4360  05A8  082F               	movf	___ftadd@f1+1,w
  4361  05A9  1103               	clrz
  4362  05AA  1803               	skipnc
  4363  05AB  0A2F               	incf	___ftadd@f1+1,w
  4364  05AC  1903               	skipnz
  4365  05AD  2DAF               	goto	u1951
  4366  05AE  07B2               	addwf	___ftadd@f2+1,f
  4367  05AF                     u1951:
  4368  05AF  0830               	movf	___ftadd@f1+2,w
  4369  05B0  1103               	clrz
  4370  05B1  1803               	skipnc
  4371  05B2  0A30               	incf	___ftadd@f1+2,w
  4372  05B3  1903               	skipnz
  4373  05B4  2DB6               	goto	u1952
  4374  05B5  07B3               	addwf	___ftadd@f2+2,f
  4375  05B6                     u1952:
  4376  05B6                     l1948:
  4377  05B6  1FB3               	btfss	___ftadd@f2+2,7
  4378  05B7  2DB9               	goto	u1961
  4379  05B8  2DBA               	goto	u1960
  4380  05B9                     u1961:
  4381  05B9  2DCC               	goto	l1954
  4382  05BA                     u1960:
  4383  05BA                     l1950:
  4384  05BA  30FF               	movlw	255
  4385  05BB  06B1               	xorwf	___ftadd@f2,f
  4386  05BC  30FF               	movlw	255
  4387  05BD  06B2               	xorwf	___ftadd@f2+1,f
  4388  05BE  30FF               	movlw	255
  4389  05BF  06B3               	xorwf	___ftadd@f2+2,f
  4390  05C0  3001               	movlw	1
  4391  05C1  07B1               	addwf	___ftadd@f2,f
  4392  05C2  3000               	movlw	0
  4393  05C3  1803               	skipnc
  4394  05C4  3001               	movlw	1
  4395  05C5  07B2               	addwf	___ftadd@f2+1,f
  4396  05C6  3000               	movlw	0
  4397  05C7  1803               	skipnc
  4398  05C8  3001               	movlw	1
  4399  05C9  07B3               	addwf	___ftadd@f2+2,f
  4400  05CA                     l1952:
  4401  05CA  01B8               	clrf	___ftadd@sign
  4402  05CB  0AB8               	incf	___ftadd@sign,f
  4403  05CC                     l1954:
  4404  05CC  0831               	movf	___ftadd@f2,w
  4405  05CD  00A0               	movwf	___ftpack@arg
  4406  05CE  0832               	movf	___ftadd@f2+1,w
  4407  05CF  00A1               	movwf	___ftpack@arg+1
  4408  05D0  0833               	movf	___ftadd@f2+2,w
  4409  05D1  00A2               	movwf	___ftpack@arg+2
  4410  05D2  083A               	movf	___ftadd@exp1,w
  4411  05D3  00B4               	movwf	??___ftadd
  4412  05D4  0834               	movf	??___ftadd,w
  4413  05D5  00A3               	movwf	___ftpack@exp
  4414  05D6  0838               	movf	___ftadd@sign,w
  4415  05D7  00B5               	movwf	??___ftadd+1
  4416  05D8  0835               	movf	??___ftadd+1,w
  4417  05D9  00A4               	movwf	___ftpack@sign
  4418  05DA  120A  158A  20A4  120A  118A  	fcall	___ftpack
  4419  05DF  1283               	bcf	3,5	;RP0=0, select bank0
  4420  05E0  1303               	bcf	3,6	;RP1=0, select bank0
  4421  05E1  0820               	movf	?___ftpack,w
  4422  05E2  00AE               	movwf	?___ftadd
  4423  05E3  0821               	movf	?___ftpack+1,w
  4424  05E4  00AF               	movwf	?___ftadd+1
  4425  05E5  0822               	movf	?___ftpack+2,w
  4426  05E6  00B0               	movwf	?___ftadd+2
  4427  05E7                     l696:
  4428  05E7  0008               	return
  4429  05E8                     __end_of___ftadd:
  4430                           
  4431                           	psect	text12
  4432  082A                     __ptext12:	
  4433 ;; *************** function _mostrarDatos *****************
  4434 ;; Defined at:
  4435 ;;		line 52 in file "display.c"
  4436 ;; Parameters:    Size  Location     Type
  4437 ;;		None
  4438 ;; Auto vars:     Size  Location     Type
  4439 ;;		None
  4440 ;; Return value:  Size  Location     Type
  4441 ;;                  1    wreg      void 
  4442 ;; Registers used:
  4443 ;;		wreg, fsr0l, fsr0h, status,2, status,0, btemp+1, pclath, cstack
  4444 ;; Tracked objects:
  4445 ;;		On entry : 0/0
  4446 ;;		On exit  : 0/0
  4447 ;;		Unchanged: 0/0
  4448 ;; Data sizes:     COMMON   BANK0   BANK1   BANK3   BANK2
  4449 ;;      Params:         0       0       0       0       0
  4450 ;;      Locals:         0       0       0       0       0
  4451 ;;      Temps:          0       0       0       0       0
  4452 ;;      Totals:         0       0       0       0       0
  4453 ;;Total ram usage:        0 bytes
  4454 ;; Hardware stack levels used:    1
  4455 ;; Hardware stack levels required when called:    4
  4456 ;; This function calls:
  4457 ;;		_get_humedad
  4458 ;;		_get_intensidad_luminosa
  4459 ;;		_get_temperatura_exterior
  4460 ;;		_get_temperatura_interior
  4461 ;;		_get_velocidad_ventilador
  4462 ;;		_printf
  4463 ;; This function is called by:
  4464 ;;		_main
  4465 ;; This function uses a non-reentrant model
  4466 ;;
  4467                           
  4468                           
  4469                           ;psect for function _mostrarDatos
  4470  082A                     _mostrarDatos:
  4471  082A                     l2446:	
  4472                           ;incstack = 0
  4473                           ; Regs used in _mostrarDatos: [wreg-fsr0h+status,2+status,0+btemp+1+pclath+cstack]
  4474                           
  4475                           
  4476                           ;display.c: 53: printf("\r\nDatos:\r\n");
  4477  082A  30FA               	movlw	low (STR_8| (0+32768))
  4478  082B  1283               	bcf	3,5	;RP0=0, select bank0
  4479  082C  1303               	bcf	3,6	;RP1=0, select bank0
  4480  082D  00EB               	movwf	printf@f
  4481  082E  3082               	movlw	high (STR_8| (0+32768))
  4482  082F  00EC               	movwf	printf@f+1
  4483  0830  120A  118A  25E8  120A  158A  	fcall	_printf
  4484                           
  4485                           ;display.c: 55: printf("Temperatura interior %dº \r\n", get_temperatura_interior());
  4486  0835  300A               	movlw	low (STR_9| (0+32768))
  4487  0836  1283               	bcf	3,5	;RP0=0, select bank0
  4488  0837  1303               	bcf	3,6	;RP1=0, select bank0
  4489  0838  00EB               	movwf	printf@f
  4490  0839  3082               	movlw	high (STR_9| (0+32768))
  4491  083A  00EC               	movwf	printf@f+1
  4492  083B  160A  118A  250A  120A  158A  	fcall	_get_temperatura_interior
  4493  0840  1283               	bcf	3,5	;RP0=0, select bank0
  4494  0841  1303               	bcf	3,6	;RP1=0, select bank0
  4495  0842  0821               	movf	?_get_temperatura_interior+1,w
  4496  0843  00EE               	movwf	?_printf+3
  4497  0844  0820               	movf	?_get_temperatura_interior,w
  4498  0845  00ED               	movwf	?_printf+2
  4499  0846  120A  118A  25E8  120A  158A  	fcall	_printf
  4500                           
  4501                           ;display.c: 57: printf("Temperatura exterior %dº \r\n", get_temperatura_exterior());
  4502  084B  3026               	movlw	low (STR_10| (0+32768))
  4503  084C  1283               	bcf	3,5	;RP0=0, select bank0
  4504  084D  1303               	bcf	3,6	;RP1=0, select bank0
  4505  084E  00EB               	movwf	printf@f
  4506  084F  3082               	movlw	high (STR_10| (0+32768))
  4507  0850  00EC               	movwf	printf@f+1
  4508  0851  160A  118A  2531  120A  158A  	fcall	_get_temperatura_exterior
  4509  0856  1283               	bcf	3,5	;RP0=0, select bank0
  4510  0857  1303               	bcf	3,6	;RP1=0, select bank0
  4511  0858  0821               	movf	?_get_temperatura_exterior+1,w
  4512  0859  00EE               	movwf	?_printf+3
  4513  085A  0820               	movf	?_get_temperatura_exterior,w
  4514  085B  00ED               	movwf	?_printf+2
  4515  085C  120A  118A  25E8  120A  158A  	fcall	_printf
  4516                           
  4517                           ;display.c: 59: printf("Humedad %d%% \r\n", get_humedad());
  4518  0861  30CD               	movlw	low (STR_11| (0+32768))
  4519  0862  1283               	bcf	3,5	;RP0=0, select bank0
  4520  0863  1303               	bcf	3,6	;RP1=0, select bank0
  4521  0864  00EB               	movwf	printf@f
  4522  0865  3082               	movlw	high (STR_11| (0+32768))
  4523  0866  00EC               	movwf	printf@f+1
  4524  0867  160A  118A  2517  120A  158A  	fcall	_get_humedad
  4525  086C  1283               	bcf	3,5	;RP0=0, select bank0
  4526  086D  1303               	bcf	3,6	;RP1=0, select bank0
  4527  086E  0821               	movf	?_get_humedad+1,w
  4528  086F  00EE               	movwf	?_printf+3
  4529  0870  0820               	movf	?_get_humedad,w
  4530  0871  00ED               	movwf	?_printf+2
  4531  0872  120A  118A  25E8  120A  158A  	fcall	_printf
  4532                           
  4533                           ;display.c: 61: printf("Intensidad luminosa %d lm\r\n", get_intensidad_luminosa());
  4534  0877  3042               	movlw	low (STR_12| (0+32768))
  4535  0878  1283               	bcf	3,5	;RP0=0, select bank0
  4536  0879  1303               	bcf	3,6	;RP1=0, select bank0
  4537  087A  00EB               	movwf	printf@f
  4538  087B  3082               	movlw	high (STR_12| (0+32768))
  4539  087C  00EC               	movwf	printf@f+1
  4540  087D  160A  118A  2524  120A  158A  	fcall	_get_intensidad_luminosa
  4541  0882  1283               	bcf	3,5	;RP0=0, select bank0
  4542  0883  1303               	bcf	3,6	;RP1=0, select bank0
  4543  0884  0821               	movf	?_get_intensidad_luminosa+1,w
  4544  0885  00EE               	movwf	?_printf+3
  4545  0886  0820               	movf	?_get_intensidad_luminosa,w
  4546  0887  00ED               	movwf	?_printf+2
  4547  0888  120A  118A  25E8  120A  158A  	fcall	_printf
  4548                           
  4549                           ;display.c: 63: printf("Velocidad del ventilador %d%%\r\n", get_velocidad_ventilador());
  4550  088D  30B1               	movlw	low (STR_13| (0+32768))
  4551  088E  1283               	bcf	3,5	;RP0=0, select bank0
  4552  088F  1303               	bcf	3,6	;RP1=0, select bank0
  4553  0890  00EB               	movwf	printf@f
  4554  0891  3081               	movlw	high (STR_13| (0+32768))
  4555  0892  00EC               	movwf	printf@f+1
  4556  0893  120A  118A  20E2  120A  158A  	fcall	_get_velocidad_ventilador
  4557  0898  1283               	bcf	3,5	;RP0=0, select bank0
  4558  0899  1303               	bcf	3,6	;RP1=0, select bank0
  4559  089A  086A               	movf	?_get_velocidad_ventilador+1,w
  4560  089B  00EE               	movwf	?_printf+3
  4561  089C  0869               	movf	?_get_velocidad_ventilador,w
  4562  089D  00ED               	movwf	?_printf+2
  4563  089E  120A  118A  25E8  120A  158A  	fcall	_printf
  4564  08A3                     l154:
  4565  08A3  0008               	return
  4566  08A4                     __end_of_mostrarDatos:
  4567                           
  4568                           	psect	text13
  4569  00E2                     __ptext13:	
  4570 ;; *************** function _get_velocidad_ventilador *****************
  4571 ;; Defined at:
  4572 ;;		line 111 in file "actuadores.c"
  4573 ;; Parameters:    Size  Location     Type
  4574 ;;		None
  4575 ;; Auto vars:     Size  Location     Type
  4576 ;;		None
  4577 ;; Return value:  Size  Location     Type
  4578 ;;                  2   73[BANK0 ] int 
  4579 ;; Registers used:
  4580 ;;		wreg, status,2, status,0, pclath, cstack
  4581 ;; Tracked objects:
  4582 ;;		On entry : 0/0
  4583 ;;		On exit  : 0/0
  4584 ;;		Unchanged: 0/0
  4585 ;; Data sizes:     COMMON   BANK0   BANK1   BANK3   BANK2
  4586 ;;      Params:         0       2       0       0       0
  4587 ;;      Locals:         0       0       0       0       0
  4588 ;;      Temps:          0       0       0       0       0
  4589 ;;      Totals:         0       2       0       0       0
  4590 ;;Total ram usage:        2 bytes
  4591 ;; Hardware stack levels used:    1
  4592 ;; Hardware stack levels required when called:    3
  4593 ;; This function calls:
  4594 ;;		___fttol
  4595 ;; This function is called by:
  4596 ;;		_mostrarDatos
  4597 ;; This function uses a non-reentrant model
  4598 ;;
  4599                           
  4600                           
  4601                           ;psect for function _get_velocidad_ventilador
  4602  00E2                     _get_velocidad_ventilador:
  4603  00E2                     l2130:	
  4604                           ;incstack = 0
  4605                           ; Regs used in _get_velocidad_ventilador: [wreg+status,2+status,0+pclath+cstack]
  4606                           
  4607                           
  4608                           ;actuadores.c: 112: return vent;
  4609  00E2  1683               	bsf	3,5	;RP0=1, select bank1
  4610  00E3  1303               	bcf	3,6	;RP1=0, select bank1
  4611  00E4  0826               	movf	_vent^(0+128),w
  4612  00E5  1283               	bcf	3,5	;RP0=0, select bank0
  4613  00E6  1303               	bcf	3,6	;RP1=0, select bank0
  4614  00E7  00DB               	movwf	___fttol@f1
  4615  00E8  1683               	bsf	3,5	;RP0=1, select bank1
  4616  00E9  1303               	bcf	3,6	;RP1=0, select bank1
  4617  00EA  0827               	movf	(_vent+1)^(0+128),w
  4618  00EB  1283               	bcf	3,5	;RP0=0, select bank0
  4619  00EC  1303               	bcf	3,6	;RP1=0, select bank0
  4620  00ED  00DC               	movwf	___fttol@f1+1
  4621  00EE  1683               	bsf	3,5	;RP0=1, select bank1
  4622  00EF  1303               	bcf	3,6	;RP1=0, select bank1
  4623  00F0  0828               	movf	(_vent+2)^(0+128),w
  4624  00F1  1283               	bcf	3,5	;RP0=0, select bank0
  4625  00F2  1303               	bcf	3,6	;RP1=0, select bank0
  4626  00F3  00DD               	movwf	___fttol@f1+2
  4627  00F4  120A  158A  2122  120A  118A  	fcall	___fttol
  4628  00F9  1283               	bcf	3,5	;RP0=0, select bank0
  4629  00FA  1303               	bcf	3,6	;RP1=0, select bank0
  4630  00FB  085C               	movf	?___fttol+1,w
  4631  00FC  00EA               	movwf	?_get_velocidad_ventilador+1
  4632  00FD  085B               	movf	?___fttol,w
  4633  00FE  00E9               	movwf	?_get_velocidad_ventilador
  4634  00FF                     l246:
  4635  00FF  0008               	return
  4636  0100                     __end_of_get_velocidad_ventilador:
  4637                           
  4638                           	psect	text14
  4639  1531                     __ptext14:	
  4640 ;; *************** function _get_temperatura_exterior *****************
  4641 ;; Defined at:
  4642 ;;		line 101 in file "sensores.c"
  4643 ;; Parameters:    Size  Location     Type
  4644 ;;		None
  4645 ;; Auto vars:     Size  Location     Type
  4646 ;;		None
  4647 ;; Return value:  Size  Location     Type
  4648 ;;                  2    0[BANK0 ] int 
  4649 ;; Registers used:
  4650 ;;		wreg
  4651 ;; Tracked objects:
  4652 ;;		On entry : 0/0
  4653 ;;		On exit  : 0/0
  4654 ;;		Unchanged: 0/0
  4655 ;; Data sizes:     COMMON   BANK0   BANK1   BANK3   BANK2
  4656 ;;      Params:         0       2       0       0       0
  4657 ;;      Locals:         0       0       0       0       0
  4658 ;;      Temps:          0       0       0       0       0
  4659 ;;      Totals:         0       2       0       0       0
  4660 ;;Total ram usage:        2 bytes
  4661 ;; Hardware stack levels used:    1
  4662 ;; Hardware stack levels required when called:    2
  4663 ;; This function calls:
  4664 ;;		Nothing
  4665 ;; This function is called by:
  4666 ;;		_mostrarDatos
  4667 ;; This function uses a non-reentrant model
  4668 ;;
  4669                           
  4670                           
  4671                           ;psect for function _get_temperatura_exterior
  4672  1531                     _get_temperatura_exterior:
  4673  1531                     l2102:	
  4674                           ;incstack = 0
  4675                           ; Regs used in _get_temperatura_exterior: [wreg]
  4676                           
  4677                           
  4678                           ;sensores.c: 103: return tempext;
  4679  1531  1683               	bsf	3,5	;RP0=1, select bank1
  4680  1532  1303               	bcf	3,6	;RP1=0, select bank1
  4681  1533  083B               	movf	(_tempext+1)^(0+128),w
  4682  1534  1283               	bcf	3,5	;RP0=0, select bank0
  4683  1535  1303               	bcf	3,6	;RP1=0, select bank0
  4684  1536  00A1               	movwf	?_get_temperatura_exterior+1
  4685  1537  1683               	bsf	3,5	;RP0=1, select bank1
  4686  1538  1303               	bcf	3,6	;RP1=0, select bank1
  4687  1539  083A               	movf	_tempext^(0+128),w
  4688  153A  1283               	bcf	3,5	;RP0=0, select bank0
  4689  153B  1303               	bcf	3,6	;RP1=0, select bank0
  4690  153C  00A0               	movwf	?_get_temperatura_exterior
  4691  153D                     l57:
  4692  153D  0008               	return
  4693  153E                     __end_of_get_temperatura_exterior:
  4694                           
  4695                           	psect	text15
  4696  1524                     __ptext15:	
  4697 ;; *************** function _get_intensidad_luminosa *****************
  4698 ;; Defined at:
  4699 ;;		line 157 in file "sensores.c"
  4700 ;; Parameters:    Size  Location     Type
  4701 ;;		None
  4702 ;; Auto vars:     Size  Location     Type
  4703 ;;		None
  4704 ;; Return value:  Size  Location     Type
  4705 ;;                  2    0[BANK0 ] int 
  4706 ;; Registers used:
  4707 ;;		wreg
  4708 ;; Tracked objects:
  4709 ;;		On entry : 0/0
  4710 ;;		On exit  : 0/0
  4711 ;;		Unchanged: 0/0
  4712 ;; Data sizes:     COMMON   BANK0   BANK1   BANK3   BANK2
  4713 ;;      Params:         0       2       0       0       0
  4714 ;;      Locals:         0       0       0       0       0
  4715 ;;      Temps:          0       0       0       0       0
  4716 ;;      Totals:         0       2       0       0       0
  4717 ;;Total ram usage:        2 bytes
  4718 ;; Hardware stack levels used:    1
  4719 ;; Hardware stack levels required when called:    2
  4720 ;; This function calls:
  4721 ;;		Nothing
  4722 ;; This function is called by:
  4723 ;;		_mostrarDatos
  4724 ;; This function uses a non-reentrant model
  4725 ;;
  4726                           
  4727                           
  4728                           ;psect for function _get_intensidad_luminosa
  4729  1524                     _get_intensidad_luminosa:
  4730  1524                     l2110:	
  4731                           ;incstack = 0
  4732                           ; Regs used in _get_intensidad_luminosa: [wreg]
  4733                           
  4734                           
  4735                           ;sensores.c: 159: return lum;
  4736  1524  1683               	bsf	3,5	;RP0=1, select bank1
  4737  1525  1303               	bcf	3,6	;RP1=0, select bank1
  4738  1526  0837               	movf	(_lum+1)^(0+128),w
  4739  1527  1283               	bcf	3,5	;RP0=0, select bank0
  4740  1528  1303               	bcf	3,6	;RP1=0, select bank0
  4741  1529  00A1               	movwf	?_get_intensidad_luminosa+1
  4742  152A  1683               	bsf	3,5	;RP0=1, select bank1
  4743  152B  1303               	bcf	3,6	;RP1=0, select bank1
  4744  152C  0836               	movf	_lum^(0+128),w
  4745  152D  1283               	bcf	3,5	;RP0=0, select bank0
  4746  152E  1303               	bcf	3,6	;RP1=0, select bank0
  4747  152F  00A0               	movwf	?_get_intensidad_luminosa
  4748  1530                     l75:
  4749  1530  0008               	return
  4750  1531                     __end_of_get_intensidad_luminosa:
  4751                           
  4752                           	psect	text16
  4753  1517                     __ptext16:	
  4754 ;; *************** function _get_humedad *****************
  4755 ;; Defined at:
  4756 ;;		line 130 in file "sensores.c"
  4757 ;; Parameters:    Size  Location     Type
  4758 ;;		None
  4759 ;; Auto vars:     Size  Location     Type
  4760 ;;		None
  4761 ;; Return value:  Size  Location     Type
  4762 ;;                  2    0[BANK0 ] int 
  4763 ;; Registers used:
  4764 ;;		wreg
  4765 ;; Tracked objects:
  4766 ;;		On entry : 0/0
  4767 ;;		On exit  : 0/0
  4768 ;;		Unchanged: 0/0
  4769 ;; Data sizes:     COMMON   BANK0   BANK1   BANK3   BANK2
  4770 ;;      Params:         0       2       0       0       0
  4771 ;;      Locals:         0       0       0       0       0
  4772 ;;      Temps:          0       0       0       0       0
  4773 ;;      Totals:         0       2       0       0       0
  4774 ;;Total ram usage:        2 bytes
  4775 ;; Hardware stack levels used:    1
  4776 ;; Hardware stack levels required when called:    2
  4777 ;; This function calls:
  4778 ;;		Nothing
  4779 ;; This function is called by:
  4780 ;;		_mostrarDatos
  4781 ;; This function uses a non-reentrant model
  4782 ;;
  4783                           
  4784                           
  4785                           ;psect for function _get_humedad
  4786  1517                     _get_humedad:
  4787  1517                     l2106:	
  4788                           ;incstack = 0
  4789                           ; Regs used in _get_humedad: [wreg]
  4790                           
  4791                           
  4792                           ;sensores.c: 131: return humedad;
  4793  1517  1683               	bsf	3,5	;RP0=1, select bank1
  4794  1518  1303               	bcf	3,6	;RP1=0, select bank1
  4795  1519  0839               	movf	(_humedad+1)^(0+128),w
  4796  151A  1283               	bcf	3,5	;RP0=0, select bank0
  4797  151B  1303               	bcf	3,6	;RP1=0, select bank0
  4798  151C  00A1               	movwf	?_get_humedad+1
  4799  151D  1683               	bsf	3,5	;RP0=1, select bank1
  4800  151E  1303               	bcf	3,6	;RP1=0, select bank1
  4801  151F  0838               	movf	_humedad^(0+128),w
  4802  1520  1283               	bcf	3,5	;RP0=0, select bank0
  4803  1521  1303               	bcf	3,6	;RP1=0, select bank0
  4804  1522  00A0               	movwf	?_get_humedad
  4805  1523                     l66:
  4806  1523  0008               	return
  4807  1524                     __end_of_get_humedad:
  4808                           
  4809                           	psect	text17
  4810  155F                     __ptext17:	
  4811 ;; *************** function _mostrarConsigna *****************
  4812 ;; Defined at:
  4813 ;;		line 48 in file "display.c"
  4814 ;; Parameters:    Size  Location     Type
  4815 ;;		None
  4816 ;; Auto vars:     Size  Location     Type
  4817 ;;		None
  4818 ;; Return value:  Size  Location     Type
  4819 ;;                  1    wreg      void 
  4820 ;; Registers used:
  4821 ;;		wreg, fsr0l, fsr0h, status,2, status,0, btemp+1, pclath, cstack
  4822 ;; Tracked objects:
  4823 ;;		On entry : 0/0
  4824 ;;		On exit  : 0/0
  4825 ;;		Unchanged: 0/0
  4826 ;; Data sizes:     COMMON   BANK0   BANK1   BANK3   BANK2
  4827 ;;      Params:         0       0       0       0       0
  4828 ;;      Locals:         0       0       0       0       0
  4829 ;;      Temps:          0       0       0       0       0
  4830 ;;      Totals:         0       0       0       0       0
  4831 ;;Total ram usage:        0 bytes
  4832 ;; Hardware stack levels used:    1
  4833 ;; Hardware stack levels required when called:    4
  4834 ;; This function calls:
  4835 ;;		_get_tempObjetivo
  4836 ;;		_printf
  4837 ;; This function is called by:
  4838 ;;		_main
  4839 ;; This function uses a non-reentrant model
  4840 ;;
  4841                           
  4842                           
  4843                           ;psect for function _mostrarConsigna
  4844  155F                     _mostrarConsigna:
  4845  155F                     l2444:	
  4846                           ;incstack = 0
  4847                           ; Regs used in _mostrarConsigna: [wreg-fsr0h+status,2+status,0+btemp+1+pclath+cstack]
  4848                           
  4849                           
  4850                           ;display.c: 49: printf("\r\n------> Consigna o Temperatura Objetivo: %dº\r\n", get_tempO
      +                          bjetivo());
  4851  155F  305D               	movlw	low (STR_7| (0+32768))
  4852  1560  1283               	bcf	3,5	;RP0=0, select bank0
  4853  1561  1303               	bcf	3,6	;RP1=0, select bank0
  4854  1562  00EB               	movwf	printf@f
  4855  1563  3081               	movlw	high (STR_7| (0+32768))
  4856  1564  00EC               	movwf	printf@f+1
  4857  1565  160A  118A  264B  160A  118A  	fcall	_get_tempObjetivo
  4858  156A  1283               	bcf	3,5	;RP0=0, select bank0
  4859  156B  1303               	bcf	3,6	;RP1=0, select bank0
  4860  156C  0830               	movf	?_get_tempObjetivo+1,w
  4861  156D  00EE               	movwf	?_printf+3
  4862  156E  082F               	movf	?_get_tempObjetivo,w
  4863  156F  00ED               	movwf	?_printf+2
  4864  1570  120A  118A  25E8  160A  118A  	fcall	_printf
  4865  1575                     l151:
  4866  1575  0008               	return
  4867  1576                     __end_of_mostrarConsigna:
  4868                           
  4869                           	psect	text18
  4870  14FE                     __ptext18:	
  4871 ;; *************** function _mensajeBienvenida *****************
  4872 ;; Defined at:
  4873 ;;		line 44 in file "display.c"
  4874 ;; Parameters:    Size  Location     Type
  4875 ;;		None
  4876 ;; Auto vars:     Size  Location     Type
  4877 ;;		None
  4878 ;; Return value:  Size  Location     Type
  4879 ;;                  1    wreg      void 
  4880 ;; Registers used:
  4881 ;;		wreg, fsr0l, fsr0h, status,2, status,0, btemp+1, pclath, cstack
  4882 ;; Tracked objects:
  4883 ;;		On entry : 0/0
  4884 ;;		On exit  : 0/0
  4885 ;;		Unchanged: 0/0
  4886 ;; Data sizes:     COMMON   BANK0   BANK1   BANK3   BANK2
  4887 ;;      Params:         0       0       0       0       0
  4888 ;;      Locals:         0       0       0       0       0
  4889 ;;      Temps:          0       0       0       0       0
  4890 ;;      Totals:         0       0       0       0       0
  4891 ;;Total ram usage:        0 bytes
  4892 ;; Hardware stack levels used:    1
  4893 ;; Hardware stack levels required when called:    4
  4894 ;; This function calls:
  4895 ;;		_printf
  4896 ;; This function is called by:
  4897 ;;		_main
  4898 ;; This function uses a non-reentrant model
  4899 ;;
  4900                           
  4901                           
  4902                           ;psect for function _mensajeBienvenida
  4903  14FE                     _mensajeBienvenida:
  4904  14FE                     l2442:	
  4905                           ;incstack = 0
  4906                           ; Regs used in _mensajeBienvenida: [wreg-fsr0h+status,2+status,0+btemp+1+pclath+cstack]
  4907                           
  4908                           
  4909                           ;display.c: 45: printf("\r\nBienvenidos al sistema de Control y Monitorizacion del Horno
      +                          \r\n");
  4910  14FE  301C               	movlw	low (STR_6| (0+32768))
  4911  14FF  1283               	bcf	3,5	;RP0=0, select bank0
  4912  1500  1303               	bcf	3,6	;RP1=0, select bank0
  4913  1501  00EB               	movwf	printf@f
  4914  1502  3081               	movlw	high (STR_6| (0+32768))
  4915  1503  00EC               	movwf	printf@f+1
  4916  1504  120A  118A  25E8  160A  118A  	fcall	_printf
  4917  1509                     l148:
  4918  1509  0008               	return
  4919  150A                     __end_of_mensajeBienvenida:
  4920                           
  4921                           	psect	text19
  4922  0305                     __ptext19:	
  4923 ;; *************** function _logica_Actuadores *****************
  4924 ;; Defined at:
  4925 ;;		line 78 in file "actuadores.c"
  4926 ;; Parameters:    Size  Location     Type
  4927 ;;		None
  4928 ;; Auto vars:     Size  Location     Type
  4929 ;;		None
  4930 ;; Return value:  Size  Location     Type
  4931 ;;                  1    wreg      void 
  4932 ;; Registers used:
  4933 ;;		wreg, fsr0l, fsr0h, status,2, status,0, btemp+1, pclath, cstack
  4934 ;; Tracked objects:
  4935 ;;		On entry : 0/0
  4936 ;;		On exit  : 0/0
  4937 ;;		Unchanged: 0/0
  4938 ;; Data sizes:     COMMON   BANK0   BANK1   BANK3   BANK2
  4939 ;;      Params:         0       0       0       0       0
  4940 ;;      Locals:         0       0       0       0       0
  4941 ;;      Temps:          0       0       0       0       0
  4942 ;;      Totals:         0       0       0       0       0
  4943 ;;Total ram usage:        0 bytes
  4944 ;; Hardware stack levels used:    1
  4945 ;; Hardware stack levels required when called:    4
  4946 ;; This function calls:
  4947 ;;		___awtoft
  4948 ;;		___ftdiv
  4949 ;;		___ftge
  4950 ;;		___ftmul
  4951 ;;		___fttol
  4952 ;;		___wmul
  4953 ;;		_get_lastPotenciometro
  4954 ;;		_get_tempObjetivo
  4955 ;;		_get_temperatura_interior
  4956 ;;		_printf
  4957 ;;		_set_Calefactor
  4958 ;;		_set_Refrigerador
  4959 ;;		_set_Ventilador
  4960 ;; This function is called by:
  4961 ;;		_main
  4962 ;; This function uses a non-reentrant model
  4963 ;;
  4964                           
  4965                           
  4966                           ;psect for function _logica_Actuadores
  4967  0305                     _logica_Actuadores:
  4968  0305                     l2456:	
  4969                           ;incstack = 0
  4970                           ; Regs used in _logica_Actuadores: [wreg-fsr0h+status,2+status,0+btemp+1+pclath+cstack]
  4971                           
  4972                           
  4973                           ;actuadores.c: 79: tempInt = get_temperatura_interior();
  4974  0305  160A  118A  250A  120A  118A  	fcall	_get_temperatura_interior
  4975  030A  1283               	bcf	3,5	;RP0=0, select bank0
  4976  030B  1303               	bcf	3,6	;RP1=0, select bank0
  4977  030C  0821               	movf	?_get_temperatura_interior+1,w
  4978  030D  1683               	bsf	3,5	;RP0=1, select bank1
  4979  030E  1303               	bcf	3,6	;RP1=0, select bank1
  4980  030F  00AF               	movwf	(_tempInt+1)^(0+128)
  4981  0310  1283               	bcf	3,5	;RP0=0, select bank0
  4982  0311  1303               	bcf	3,6	;RP1=0, select bank0
  4983  0312  0820               	movf	?_get_temperatura_interior,w
  4984  0313  1683               	bsf	3,5	;RP0=1, select bank1
  4985  0314  1303               	bcf	3,6	;RP1=0, select bank1
  4986  0315  00AE               	movwf	_tempInt^(0+128)
  4987  0316                     l2458:
  4988                           
  4989                           ;actuadores.c: 80: tempObj = get_tempObjetivo();
  4990  0316  160A  118A  264B  120A  118A  	fcall	_get_tempObjetivo
  4991  031B  1283               	bcf	3,5	;RP0=0, select bank0
  4992  031C  1303               	bcf	3,6	;RP1=0, select bank0
  4993  031D  0830               	movf	?_get_tempObjetivo+1,w
  4994  031E  1683               	bsf	3,5	;RP0=1, select bank1
  4995  031F  1303               	bcf	3,6	;RP1=0, select bank1
  4996  0320  00AD               	movwf	(_tempObj+1)^(0+128)
  4997  0321  1283               	bcf	3,5	;RP0=0, select bank0
  4998  0322  1303               	bcf	3,6	;RP1=0, select bank0
  4999  0323  082F               	movf	?_get_tempObjetivo,w
  5000  0324  1683               	bsf	3,5	;RP0=1, select bank1
  5001  0325  1303               	bcf	3,6	;RP1=0, select bank1
  5002  0326  00AC               	movwf	_tempObj^(0+128)
  5003  0327                     l2460:
  5004                           
  5005                           ;actuadores.c: 81: diferencia = tempObj - tempInt;
  5006  0327  082E               	movf	_tempInt^(0+128),w
  5007  0328  022C               	subwf	_tempObj^(0+128),w
  5008  0329  00C0               	movwf	_diferencia^(0+128)
  5009  032A  082F               	movf	(_tempInt+1)^(0+128),w
  5010  032B  1C03               	skipc
  5011  032C  0A2F               	incf	(_tempInt+1)^(0+128),w
  5012  032D  022D               	subwf	(_tempObj+1)^(0+128),w
  5013  032E  00C1               	movwf	(_diferencia+1)^(0+128)
  5014  032F                     l2462:
  5015                           
  5016                           ;actuadores.c: 82: errorMaximo = tempObj * 0.05;
  5017  032F  30CD               	movlw	205
  5018  0330  1283               	bcf	3,5	;RP0=0, select bank0
  5019  0331  1303               	bcf	3,6	;RP1=0, select bank0
  5020  0332  00CB               	movwf	___ftmul@f1
  5021  0333  304C               	movlw	76
  5022  0334  00CC               	movwf	___ftmul@f1+1
  5023  0335  303D               	movlw	61
  5024  0336  00CD               	movwf	___ftmul@f1+2
  5025  0337  1683               	bsf	3,5	;RP0=1, select bank1
  5026  0338  1303               	bcf	3,6	;RP1=0, select bank1
  5027  0339  082D               	movf	(_tempObj+1)^(0+128),w
  5028  033A  1283               	bcf	3,5	;RP0=0, select bank0
  5029  033B  1303               	bcf	3,6	;RP1=0, select bank0
  5030  033C  00A9               	movwf	___awtoft@c+1
  5031  033D  1683               	bsf	3,5	;RP0=1, select bank1
  5032  033E  1303               	bcf	3,6	;RP1=0, select bank1
  5033  033F  082C               	movf	_tempObj^(0+128),w
  5034  0340  1283               	bcf	3,5	;RP0=0, select bank0
  5035  0341  1303               	bcf	3,6	;RP1=0, select bank0
  5036  0342  00A8               	movwf	___awtoft@c
  5037  0343  160A  118A  25F6  120A  118A  	fcall	___awtoft
  5038  0348  1283               	bcf	3,5	;RP0=0, select bank0
  5039  0349  1303               	bcf	3,6	;RP1=0, select bank0
  5040  034A  0828               	movf	?___awtoft,w
  5041  034B  00CE               	movwf	___ftmul@f2
  5042  034C  0829               	movf	?___awtoft+1,w
  5043  034D  00CF               	movwf	___ftmul@f2+1
  5044  034E  082A               	movf	?___awtoft+2,w
  5045  034F  00D0               	movwf	___ftmul@f2+2
  5046  0350  120A  158A  231D  120A  118A  	fcall	___ftmul
  5047  0355  1283               	bcf	3,5	;RP0=0, select bank0
  5048  0356  1303               	bcf	3,6	;RP1=0, select bank0
  5049  0357  084B               	movf	?___ftmul,w
  5050  0358  1683               	bsf	3,5	;RP0=1, select bank1
  5051  0359  1303               	bcf	3,6	;RP1=0, select bank1
  5052  035A  00A3               	movwf	_errorMaximo^(0+128)
  5053  035B  1283               	bcf	3,5	;RP0=0, select bank0
  5054  035C  1303               	bcf	3,6	;RP1=0, select bank0
  5055  035D  084C               	movf	?___ftmul+1,w
  5056  035E  1683               	bsf	3,5	;RP0=1, select bank1
  5057  035F  1303               	bcf	3,6	;RP1=0, select bank1
  5058  0360  00A4               	movwf	(_errorMaximo+1)^(0+128)
  5059  0361  1283               	bcf	3,5	;RP0=0, select bank0
  5060  0362  1303               	bcf	3,6	;RP1=0, select bank0
  5061  0363  084D               	movf	?___ftmul+2,w
  5062  0364  1683               	bsf	3,5	;RP0=1, select bank1
  5063  0365  1303               	bcf	3,6	;RP1=0, select bank1
  5064  0366  00A5               	movwf	(_errorMaximo+2)^(0+128)
  5065  0367                     l2464:
  5066                           
  5067                           ;actuadores.c: 84: if (get_lastPotenciometro() > 3) {
  5068  0367  3000               	movlw	0
  5069  0368  1283               	bcf	3,5	;RP0=0, select bank0
  5070  0369  1303               	bcf	3,6	;RP1=0, select bank0
  5071  036A  00AE               	movwf	___ftge@ff1
  5072  036B  3040               	movlw	64
  5073  036C  00AF               	movwf	___ftge@ff1+1
  5074  036D  3040               	movlw	64
  5075  036E  00B0               	movwf	___ftge@ff1+2
  5076  036F  160A  118A  254C  120A  118A  	fcall	_get_lastPotenciometro
  5077  0374  1283               	bcf	3,5	;RP0=0, select bank0
  5078  0375  1303               	bcf	3,6	;RP1=0, select bank0
  5079  0376  0820               	movf	?_get_lastPotenciometro,w
  5080  0377  00B1               	movwf	___ftge@ff2
  5081  0378  0821               	movf	?_get_lastPotenciometro+1,w
  5082  0379  00B2               	movwf	___ftge@ff2+1
  5083  037A  0822               	movf	?_get_lastPotenciometro+2,w
  5084  037B  00B3               	movwf	___ftge@ff2+2
  5085  037C  160A  118A  2682  120A  118A  	fcall	___ftge
  5086  0381  1803               	btfsc	3,0
  5087  0382  2B84               	goto	u2621
  5088  0383  2B85               	goto	u2620
  5089  0384                     u2621:
  5090  0384  2B92               	goto	l2468
  5091  0385                     u2620:
  5092  0385                     l2466:
  5093                           
  5094                           ;actuadores.c: 85: printf("Apagando Horno...");
  5095  0385  30BB               	movlw	low (STR_14| (0+32768))
  5096  0386  1283               	bcf	3,5	;RP0=0, select bank0
  5097  0387  1303               	bcf	3,6	;RP1=0, select bank0
  5098  0388  00EB               	movwf	printf@f
  5099  0389  3082               	movlw	high (STR_14| (0+32768))
  5100  038A  00EC               	movwf	printf@f+1
  5101  038B  120A  118A  25E8  120A  118A  	fcall	_printf
  5102  0390  0063               	sleep	;# 
  5103                           
  5104                           ;actuadores.c: 87: } else {
  5105  0391  2CB1               	goto	l243
  5106  0392                     l2468:
  5107                           
  5108                           ;actuadores.c: 89: if (diferencia > 0) {
  5109  0392  1683               	bsf	3,5	;RP0=1, select bank1
  5110  0393  1303               	bcf	3,6	;RP1=0, select bank1
  5111  0394  0841               	movf	(_diferencia+1)^(0+128),w
  5112  0395  3A80               	xorlw	128
  5113  0396  00FF               	movwf	btemp+1
  5114  0397  3080               	movlw	128
  5115  0398  027F               	subwf	btemp+1,w
  5116  0399  1D03               	skipz
  5117  039A  2B9D               	goto	u2635
  5118  039B  3001               	movlw	1
  5119  039C  0240               	subwf	_diferencia^(0+128),w
  5120  039D                     u2635:
  5121  039D  1C03               	skipc
  5122  039E  2BA0               	goto	u2631
  5123  039F  2BA1               	goto	u2630
  5124  03A0                     u2631:
  5125  03A0  2BB7               	goto	l2472
  5126  03A1                     u2630:
  5127  03A1                     l2470:
  5128                           
  5129                           ;actuadores.c: 90: set_Refrigerador(0);
  5130  03A1  3000               	movlw	0
  5131  03A2  1283               	bcf	3,5	;RP0=0, select bank0
  5132  03A3  1303               	bcf	3,6	;RP1=0, select bank0
  5133  03A4  00A0               	movwf	set_Refrigerador@on
  5134  03A5  00A1               	movwf	set_Refrigerador@on+1
  5135  03A6  160A  118A  24F2  120A  118A  	fcall	_set_Refrigerador
  5136                           
  5137                           ;actuadores.c: 91: set_Calefactor(1);
  5138  03AB  3001               	movlw	1
  5139  03AC  1283               	bcf	3,5	;RP0=0, select bank0
  5140  03AD  1303               	bcf	3,6	;RP1=0, select bank0
  5141  03AE  00A0               	movwf	set_Calefactor@on
  5142  03AF  3000               	movlw	0
  5143  03B0  00A1               	movwf	set_Calefactor@on+1
  5144  03B1  160A  118A  24E6  120A  118A  	fcall	_set_Calefactor
  5145                           
  5146                           ;actuadores.c: 92: } else {
  5147  03B6  2BCC               	goto	l2474
  5148  03B7                     l2472:
  5149                           
  5150                           ;actuadores.c: 93: set_Refrigerador(1);
  5151  03B7  3001               	movlw	1
  5152  03B8  1283               	bcf	3,5	;RP0=0, select bank0
  5153  03B9  1303               	bcf	3,6	;RP1=0, select bank0
  5154  03BA  00A0               	movwf	set_Refrigerador@on
  5155  03BB  3000               	movlw	0
  5156  03BC  00A1               	movwf	set_Refrigerador@on+1
  5157  03BD  160A  118A  24F2  120A  118A  	fcall	_set_Refrigerador
  5158                           
  5159                           ;actuadores.c: 94: set_Calefactor(0);
  5160  03C2  3000               	movlw	0
  5161  03C3  1283               	bcf	3,5	;RP0=0, select bank0
  5162  03C4  1303               	bcf	3,6	;RP1=0, select bank0
  5163  03C5  00A0               	movwf	set_Calefactor@on
  5164  03C6  00A1               	movwf	set_Calefactor@on+1
  5165  03C7  160A  118A  24E6  120A  118A  	fcall	_set_Calefactor
  5166  03CC                     l2474:
  5167                           
  5168                           ;actuadores.c: 95: };actuadores.c: 96: if(diferencia < 0 )
  5169  03CC  1683               	bsf	3,5	;RP0=1, select bank1
  5170  03CD  1303               	bcf	3,6	;RP1=0, select bank1
  5171  03CE  1FC1               	btfss	(_diferencia+1)^(0+128),7
  5172  03CF  2BD1               	goto	u2641
  5173  03D0  2BD2               	goto	u2640
  5174  03D1                     u2641:
  5175  03D1  2BD7               	goto	l2478
  5176  03D2                     u2640:
  5177  03D2                     l2476:
  5178                           
  5179                           ;actuadores.c: 97: diferencia = -diferencia;
  5180  03D2  09C0               	comf	_diferencia^(0+128),f
  5181  03D3  09C1               	comf	(_diferencia+1)^(0+128),f
  5182  03D4  0AC0               	incf	_diferencia^(0+128),f
  5183  03D5  1903               	skipnz
  5184  03D6  0AC1               	incf	(_diferencia+1)^(0+128),f
  5185  03D7                     l2478:
  5186                           
  5187                           ;actuadores.c: 99: if (diferencia > errorMaximo) {
  5188  03D7  0823               	movf	_errorMaximo^(0+128),w
  5189  03D8  1283               	bcf	3,5	;RP0=0, select bank0
  5190  03D9  1303               	bcf	3,6	;RP1=0, select bank0
  5191  03DA  00AE               	movwf	___ftge@ff1
  5192  03DB  1683               	bsf	3,5	;RP0=1, select bank1
  5193  03DC  1303               	bcf	3,6	;RP1=0, select bank1
  5194  03DD  0824               	movf	(_errorMaximo+1)^(0+128),w
  5195  03DE  1283               	bcf	3,5	;RP0=0, select bank0
  5196  03DF  1303               	bcf	3,6	;RP1=0, select bank0
  5197  03E0  00AF               	movwf	___ftge@ff1+1
  5198  03E1  1683               	bsf	3,5	;RP0=1, select bank1
  5199  03E2  1303               	bcf	3,6	;RP1=0, select bank1
  5200  03E3  0825               	movf	(_errorMaximo+2)^(0+128),w
  5201  03E4  1283               	bcf	3,5	;RP0=0, select bank0
  5202  03E5  1303               	bcf	3,6	;RP1=0, select bank0
  5203  03E6  00B0               	movwf	___ftge@ff1+2
  5204  03E7  1683               	bsf	3,5	;RP0=1, select bank1
  5205  03E8  1303               	bcf	3,6	;RP1=0, select bank1
  5206  03E9  0841               	movf	(_diferencia+1)^(0+128),w
  5207  03EA  1283               	bcf	3,5	;RP0=0, select bank0
  5208  03EB  1303               	bcf	3,6	;RP1=0, select bank0
  5209  03EC  00A9               	movwf	___awtoft@c+1
  5210  03ED  1683               	bsf	3,5	;RP0=1, select bank1
  5211  03EE  1303               	bcf	3,6	;RP1=0, select bank1
  5212  03EF  0840               	movf	_diferencia^(0+128),w
  5213  03F0  1283               	bcf	3,5	;RP0=0, select bank0
  5214  03F1  1303               	bcf	3,6	;RP1=0, select bank0
  5215  03F2  00A8               	movwf	___awtoft@c
  5216  03F3  160A  118A  25F6  120A  118A  	fcall	___awtoft
  5217  03F8  1283               	bcf	3,5	;RP0=0, select bank0
  5218  03F9  1303               	bcf	3,6	;RP1=0, select bank0
  5219  03FA  0828               	movf	?___awtoft,w
  5220  03FB  00B1               	movwf	___ftge@ff2
  5221  03FC  0829               	movf	?___awtoft+1,w
  5222  03FD  00B2               	movwf	___ftge@ff2+1
  5223  03FE  082A               	movf	?___awtoft+2,w
  5224  03FF  00B3               	movwf	___ftge@ff2+2
  5225  0400  160A  118A  2682  120A  118A  	fcall	___ftge
  5226  0405  1803               	btfsc	3,0
  5227  0406  2C08               	goto	u2651
  5228  0407  2C09               	goto	u2650
  5229  0408                     u2651:
  5230  0408  2C34               	goto	l2484
  5231  0409                     u2650:
  5232  0409                     l2480:
  5233                           
  5234                           ;actuadores.c: 100: vent = 75;
  5235  0409  3000               	movlw	0
  5236  040A  1683               	bsf	3,5	;RP0=1, select bank1
  5237  040B  1303               	bcf	3,6	;RP1=0, select bank1
  5238  040C  00A6               	movwf	_vent^(0+128)
  5239  040D  3096               	movlw	150
  5240  040E  00A7               	movwf	(_vent+1)^(0+128)
  5241  040F  3042               	movlw	66
  5242  0410  00A8               	movwf	(_vent+2)^(0+128)
  5243  0411                     l2482:
  5244                           
  5245                           ;actuadores.c: 101: set_Ventilador(vent);
  5246  0411  1683               	bsf	3,5	;RP0=1, select bank1
  5247  0412  1303               	bcf	3,6	;RP1=0, select bank1
  5248  0413  0826               	movf	_vent^(0+128),w
  5249  0414  1283               	bcf	3,5	;RP0=0, select bank0
  5250  0415  1303               	bcf	3,6	;RP1=0, select bank0
  5251  0416  00DB               	movwf	___fttol@f1
  5252  0417  1683               	bsf	3,5	;RP0=1, select bank1
  5253  0418  1303               	bcf	3,6	;RP1=0, select bank1
  5254  0419  0827               	movf	(_vent+1)^(0+128),w
  5255  041A  1283               	bcf	3,5	;RP0=0, select bank0
  5256  041B  1303               	bcf	3,6	;RP1=0, select bank0
  5257  041C  00DC               	movwf	___fttol@f1+1
  5258  041D  1683               	bsf	3,5	;RP0=1, select bank1
  5259  041E  1303               	bcf	3,6	;RP1=0, select bank1
  5260  041F  0828               	movf	(_vent+2)^(0+128),w
  5261  0420  1283               	bcf	3,5	;RP0=0, select bank0
  5262  0421  1303               	bcf	3,6	;RP1=0, select bank0
  5263  0422  00DD               	movwf	___fttol@f1+2
  5264  0423  120A  158A  2122  120A  118A  	fcall	___fttol
  5265  0428  1283               	bcf	3,5	;RP0=0, select bank0
  5266  0429  1303               	bcf	3,6	;RP1=0, select bank0
  5267  042A  085C               	movf	?___fttol+1,w
  5268  042B  00EA               	movwf	set_Ventilador@intensidad+1
  5269  042C  085B               	movf	?___fttol,w
  5270  042D  00E9               	movwf	set_Ventilador@intensidad
  5271  042E  120A  158A  2000  120A  118A  	fcall	_set_Ventilador
  5272                           
  5273                           ;actuadores.c: 102: } else {
  5274  0433  2CB1               	goto	l243
  5275  0434                     l2484:
  5276                           
  5277                           ;actuadores.c: 103: vent = (75 * diferencia) / errorMaximo;
  5278  0434  1683               	bsf	3,5	;RP0=1, select bank1
  5279  0435  1303               	bcf	3,6	;RP1=0, select bank1
  5280  0436  0823               	movf	_errorMaximo^(0+128),w
  5281  0437  1283               	bcf	3,5	;RP0=0, select bank0
  5282  0438  1303               	bcf	3,6	;RP1=0, select bank0
  5283  0439  00BB               	movwf	___ftdiv@f2
  5284  043A  1683               	bsf	3,5	;RP0=1, select bank1
  5285  043B  1303               	bcf	3,6	;RP1=0, select bank1
  5286  043C  0824               	movf	(_errorMaximo+1)^(0+128),w
  5287  043D  1283               	bcf	3,5	;RP0=0, select bank0
  5288  043E  1303               	bcf	3,6	;RP1=0, select bank0
  5289  043F  00BC               	movwf	___ftdiv@f2+1
  5290  0440  1683               	bsf	3,5	;RP0=1, select bank1
  5291  0441  1303               	bcf	3,6	;RP1=0, select bank1
  5292  0442  0825               	movf	(_errorMaximo+2)^(0+128),w
  5293  0443  1283               	bcf	3,5	;RP0=0, select bank0
  5294  0444  1303               	bcf	3,6	;RP1=0, select bank0
  5295  0445  00BD               	movwf	___ftdiv@f2+2
  5296  0446  1683               	bsf	3,5	;RP0=1, select bank1
  5297  0447  1303               	bcf	3,6	;RP1=0, select bank1
  5298  0448  0841               	movf	(_diferencia+1)^(0+128),w
  5299  0449  1283               	bcf	3,5	;RP0=0, select bank0
  5300  044A  1303               	bcf	3,6	;RP1=0, select bank0
  5301  044B  00A1               	movwf	___wmul@multiplier+1
  5302  044C  1683               	bsf	3,5	;RP0=1, select bank1
  5303  044D  1303               	bcf	3,6	;RP1=0, select bank1
  5304  044E  0840               	movf	_diferencia^(0+128),w
  5305  044F  1283               	bcf	3,5	;RP0=0, select bank0
  5306  0450  1303               	bcf	3,6	;RP1=0, select bank0
  5307  0451  00A0               	movwf	___wmul@multiplier
  5308  0452  304B               	movlw	75
  5309  0453  00A2               	movwf	___wmul@multiplicand
  5310  0454  3000               	movlw	0
  5311  0455  00A3               	movwf	___wmul@multiplicand+1
  5312  0456  160A  118A  25CF  120A  118A  	fcall	___wmul
  5313  045B  1283               	bcf	3,5	;RP0=0, select bank0
  5314  045C  1303               	bcf	3,6	;RP1=0, select bank0
  5315  045D  0821               	movf	?___wmul+1,w
  5316  045E  00A9               	movwf	___awtoft@c+1
  5317  045F  0820               	movf	?___wmul,w
  5318  0460  00A8               	movwf	___awtoft@c
  5319  0461  160A  118A  25F6  120A  118A  	fcall	___awtoft
  5320  0466  1283               	bcf	3,5	;RP0=0, select bank0
  5321  0467  1303               	bcf	3,6	;RP1=0, select bank0
  5322  0468  0828               	movf	?___awtoft,w
  5323  0469  00BE               	movwf	___ftdiv@f1
  5324  046A  0829               	movf	?___awtoft+1,w
  5325  046B  00BF               	movwf	___ftdiv@f1+1
  5326  046C  082A               	movf	?___awtoft+2,w
  5327  046D  00C0               	movwf	___ftdiv@f1+2
  5328  046E  120A  118A  2020  120A  118A  	fcall	___ftdiv
  5329  0473  1283               	bcf	3,5	;RP0=0, select bank0
  5330  0474  1303               	bcf	3,6	;RP1=0, select bank0
  5331  0475  083B               	movf	?___ftdiv,w
  5332  0476  1683               	bsf	3,5	;RP0=1, select bank1
  5333  0477  1303               	bcf	3,6	;RP1=0, select bank1
  5334  0478  00A6               	movwf	_vent^(0+128)
  5335  0479  1283               	bcf	3,5	;RP0=0, select bank0
  5336  047A  1303               	bcf	3,6	;RP1=0, select bank0
  5337  047B  083C               	movf	?___ftdiv+1,w
  5338  047C  1683               	bsf	3,5	;RP0=1, select bank1
  5339  047D  1303               	bcf	3,6	;RP1=0, select bank1
  5340  047E  00A7               	movwf	(_vent+1)^(0+128)
  5341  047F  1283               	bcf	3,5	;RP0=0, select bank0
  5342  0480  1303               	bcf	3,6	;RP1=0, select bank0
  5343  0481  083D               	movf	?___ftdiv+2,w
  5344  0482  1683               	bsf	3,5	;RP0=1, select bank1
  5345  0483  1303               	bcf	3,6	;RP1=0, select bank1
  5346  0484  00A8               	movwf	(_vent+2)^(0+128)
  5347                           
  5348                           ;actuadores.c: 104: if (vent <= 25)
  5349  0485  3000               	movlw	0
  5350  0486  1283               	bcf	3,5	;RP0=0, select bank0
  5351  0487  1303               	bcf	3,6	;RP1=0, select bank0
  5352  0488  00AE               	movwf	___ftge@ff1
  5353  0489  30C8               	movlw	200
  5354  048A  00AF               	movwf	___ftge@ff1+1
  5355  048B  3041               	movlw	65
  5356  048C  00B0               	movwf	___ftge@ff1+2
  5357  048D  1683               	bsf	3,5	;RP0=1, select bank1
  5358  048E  1303               	bcf	3,6	;RP1=0, select bank1
  5359  048F  0826               	movf	_vent^(0+128),w
  5360  0490  1283               	bcf	3,5	;RP0=0, select bank0
  5361  0491  1303               	bcf	3,6	;RP1=0, select bank0
  5362  0492  00B1               	movwf	___ftge@ff2
  5363  0493  1683               	bsf	3,5	;RP0=1, select bank1
  5364  0494  1303               	bcf	3,6	;RP1=0, select bank1
  5365  0495  0827               	movf	(_vent+1)^(0+128),w
  5366  0496  1283               	bcf	3,5	;RP0=0, select bank0
  5367  0497  1303               	bcf	3,6	;RP1=0, select bank0
  5368  0498  00B2               	movwf	___ftge@ff2+1
  5369  0499  1683               	bsf	3,5	;RP0=1, select bank1
  5370  049A  1303               	bcf	3,6	;RP1=0, select bank1
  5371  049B  0828               	movf	(_vent+2)^(0+128),w
  5372  049C  1283               	bcf	3,5	;RP0=0, select bank0
  5373  049D  1303               	bcf	3,6	;RP1=0, select bank0
  5374  049E  00B3               	movwf	___ftge@ff2+2
  5375  049F  160A  118A  2682  120A  118A  	fcall	___ftge
  5376  04A4  1C03               	btfss	3,0
  5377  04A5  2CA7               	goto	u2661
  5378  04A6  2CA8               	goto	u2660
  5379  04A7                     u2661:
  5380  04A7  2C11               	goto	l2482
  5381  04A8                     u2660:
  5382  04A8                     l2486:
  5383                           
  5384                           ;actuadores.c: 105: vent = 25;
  5385  04A8  3000               	movlw	0
  5386  04A9  1683               	bsf	3,5	;RP0=1, select bank1
  5387  04AA  1303               	bcf	3,6	;RP1=0, select bank1
  5388  04AB  00A6               	movwf	_vent^(0+128)
  5389  04AC  30C8               	movlw	200
  5390  04AD  00A7               	movwf	(_vent+1)^(0+128)
  5391  04AE  3041               	movlw	65
  5392  04AF  00A8               	movwf	(_vent+2)^(0+128)
  5393  04B0  2C11               	goto	l2482
  5394  04B1                     l243:
  5395  04B1  0008               	return
  5396  04B2                     __end_of_logica_Actuadores:
  5397                           
  5398                           	psect	text20
  5399  0800                     __ptext20:	
  5400 ;; *************** function _set_Ventilador *****************
  5401 ;; Defined at:
  5402 ;;		line 72 in file "actuadores.c"
  5403 ;; Parameters:    Size  Location     Type
  5404 ;;  intensidad      2   73[BANK0 ] int 
  5405 ;; Auto vars:     Size  Location     Type
  5406 ;;		None
  5407 ;; Return value:  Size  Location     Type
  5408 ;;                  1    wreg      void 
  5409 ;; Registers used:
  5410 ;;		wreg, status,2, status,0, pclath, cstack
  5411 ;; Tracked objects:
  5412 ;;		On entry : 0/0
  5413 ;;		On exit  : 0/0
  5414 ;;		Unchanged: 0/0
  5415 ;; Data sizes:     COMMON   BANK0   BANK1   BANK3   BANK2
  5416 ;;      Params:         0       2       0       0       0
  5417 ;;      Locals:         0       0       0       0       0
  5418 ;;      Temps:          0       2       0       0       0
  5419 ;;      Totals:         0       4       0       0       0
  5420 ;;Total ram usage:        4 bytes
  5421 ;; Hardware stack levels used:    1
  5422 ;; Hardware stack levels required when called:    3
  5423 ;; This function calls:
  5424 ;;		___awdiv
  5425 ;;		___wmul
  5426 ;; This function is called by:
  5427 ;;		_logica_Actuadores
  5428 ;; This function uses a non-reentrant model
  5429 ;;
  5430                           
  5431                           
  5432                           ;psect for function _set_Ventilador
  5433  0800                     _set_Ventilador:
  5434  0800                     l2158:	
  5435                           ;incstack = 0
  5436                           ; Regs used in _set_Ventilador: [wreg+status,2+status,0+pclath+cstack]
  5437                           
  5438                           
  5439                           ;actuadores.c: 75: CCPR1L = intensidad * PR2 / 100;
  5440  0800  3064               	movlw	100
  5441  0801  1283               	bcf	3,5	;RP0=0, select bank0
  5442  0802  1303               	bcf	3,6	;RP1=0, select bank0
  5443  0803  00A6               	movwf	___awdiv@divisor
  5444  0804  3000               	movlw	0
  5445  0805  00A7               	movwf	___awdiv@divisor+1
  5446  0806  1683               	bsf	3,5	;RP0=1, select bank1
  5447  0807  1303               	bcf	3,6	;RP1=0, select bank1
  5448  0808  0812               	movf	18,w	;volatile
  5449  0809  1283               	bcf	3,5	;RP0=0, select bank0
  5450  080A  1303               	bcf	3,6	;RP1=0, select bank0
  5451  080B  00EB               	movwf	??_set_Ventilador
  5452  080C  01EC               	clrf	??_set_Ventilador+1
  5453  080D  086B               	movf	??_set_Ventilador,w
  5454  080E  00A0               	movwf	___wmul@multiplier
  5455  080F  086C               	movf	??_set_Ventilador+1,w
  5456  0810  00A1               	movwf	___wmul@multiplier+1
  5457  0811  086A               	movf	set_Ventilador@intensidad+1,w
  5458  0812  00A3               	movwf	___wmul@multiplicand+1
  5459  0813  0869               	movf	set_Ventilador@intensidad,w
  5460  0814  00A2               	movwf	___wmul@multiplicand
  5461  0815  160A  118A  25CF  120A  158A  	fcall	___wmul
  5462  081A  1283               	bcf	3,5	;RP0=0, select bank0
  5463  081B  1303               	bcf	3,6	;RP1=0, select bank0
  5464  081C  0821               	movf	?___wmul+1,w
  5465  081D  00A9               	movwf	___awdiv@dividend+1
  5466  081E  0820               	movf	?___wmul,w
  5467  081F  00A8               	movwf	___awdiv@dividend
  5468  0820  160A  118A  2797  120A  158A  	fcall	___awdiv
  5469  0825  1283               	bcf	3,5	;RP0=0, select bank0
  5470  0826  1303               	bcf	3,6	;RP1=0, select bank0
  5471  0827  0826               	movf	?___awdiv,w
  5472  0828  0095               	movwf	21	;volatile
  5473  0829                     l232:
  5474  0829  0008               	return
  5475  082A                     __end_of_set_Ventilador:
  5476                           
  5477                           	psect	text21
  5478  15CF                     __ptext21:	
  5479 ;; *************** function ___wmul *****************
  5480 ;; Defined at:
  5481 ;;		line 15 in file "C:\Program Files\Microchip\xc8\v2.30\pic\sources\c90\common\Umul16.c"
  5482 ;; Parameters:    Size  Location     Type
  5483 ;;  multiplier      2    0[BANK0 ] unsigned int 
  5484 ;;  multiplicand    2    2[BANK0 ] unsigned int 
  5485 ;; Auto vars:     Size  Location     Type
  5486 ;;  product         2    4[BANK0 ] unsigned int 
  5487 ;; Return value:  Size  Location     Type
  5488 ;;                  2    0[BANK0 ] unsigned int 
  5489 ;; Registers used:
  5490 ;;		wreg, status,2, status,0
  5491 ;; Tracked objects:
  5492 ;;		On entry : 0/0
  5493 ;;		On exit  : 0/0
  5494 ;;		Unchanged: 0/0
  5495 ;; Data sizes:     COMMON   BANK0   BANK1   BANK3   BANK2
  5496 ;;      Params:         0       4       0       0       0
  5497 ;;      Locals:         0       2       0       0       0
  5498 ;;      Temps:          0       0       0       0       0
  5499 ;;      Totals:         0       6       0       0       0
  5500 ;;Total ram usage:        6 bytes
  5501 ;; Hardware stack levels used:    1
  5502 ;; Hardware stack levels required when called:    2
  5503 ;; This function calls:
  5504 ;;		Nothing
  5505 ;; This function is called by:
  5506 ;;		_read_temperatura_interior
  5507 ;;		_read_temperatura_exterior
  5508 ;;		_read_humedad
  5509 ;;		_read_intensidad_lumninosa
  5510 ;;		_read_potenciometro
  5511 ;;		_set_Ventilador
  5512 ;;		_logica_Actuadores
  5513 ;; This function uses a non-reentrant model
  5514 ;;
  5515                           
  5516                           
  5517                           ;psect for function ___wmul
  5518  15CF                     ___wmul:
  5519  15CF                     l1830:	
  5520                           ;incstack = 0
  5521                           ; Regs used in ___wmul: [wreg+status,2+status,0]
  5522                           
  5523  15CF  1283               	bcf	3,5	;RP0=0, select bank0
  5524  15D0  1303               	bcf	3,6	;RP1=0, select bank0
  5525  15D1  01A4               	clrf	___wmul@product
  5526  15D2  01A5               	clrf	___wmul@product+1
  5527  15D3                     l1832:
  5528  15D3  1C20               	btfss	___wmul@multiplier,0
  5529  15D4  2DD6               	goto	u1591
  5530  15D5  2DD7               	goto	u1590
  5531  15D6                     u1591:
  5532  15D6  2DDD               	goto	l467
  5533  15D7                     u1590:
  5534  15D7                     l1834:
  5535  15D7  0822               	movf	___wmul@multiplicand,w
  5536  15D8  07A4               	addwf	___wmul@product,f
  5537  15D9  1803               	skipnc
  5538  15DA  0AA5               	incf	___wmul@product+1,f
  5539  15DB  0823               	movf	___wmul@multiplicand+1,w
  5540  15DC  07A5               	addwf	___wmul@product+1,f
  5541  15DD                     l467:
  5542  15DD  3001               	movlw	1
  5543  15DE                     u1605:
  5544  15DE  1003               	clrc
  5545  15DF  0DA2               	rlf	___wmul@multiplicand,f
  5546  15E0  0DA3               	rlf	___wmul@multiplicand+1,f
  5547  15E1  3EFF               	addlw	-1
  5548  15E2  1D03               	skipz
  5549  15E3  2DDE               	goto	u1605
  5550  15E4                     l1836:
  5551  15E4  3001               	movlw	1
  5552  15E5                     u1615:
  5553  15E5  1003               	clrc
  5554  15E6  0CA1               	rrf	___wmul@multiplier+1,f
  5555  15E7  0CA0               	rrf	___wmul@multiplier,f
  5556  15E8  3EFF               	addlw	-1
  5557  15E9  1D03               	skipz
  5558  15EA  2DE5               	goto	u1615
  5559  15EB                     l1838:
  5560  15EB  0820               	movf	___wmul@multiplier,w
  5561  15EC  0421               	iorwf	___wmul@multiplier+1,w
  5562  15ED  1D03               	btfss	3,2
  5563  15EE  2DF0               	goto	u1621
  5564  15EF  2DF1               	goto	u1620
  5565  15F0                     u1621:
  5566  15F0  2DD3               	goto	l1832
  5567  15F1                     u1620:
  5568  15F1                     l1840:
  5569  15F1  0825               	movf	___wmul@product+1,w
  5570  15F2  00A1               	movwf	?___wmul+1
  5571  15F3  0824               	movf	___wmul@product,w
  5572  15F4  00A0               	movwf	?___wmul
  5573  15F5                     l469:
  5574  15F5  0008               	return
  5575  15F6                     __end_of___wmul:
  5576                           
  5577                           	psect	text22
  5578  14F2                     __ptext22:	
  5579 ;; *************** function _set_Refrigerador *****************
  5580 ;; Defined at:
  5581 ;;		line 57 in file "actuadores.c"
  5582 ;; Parameters:    Size  Location     Type
  5583 ;;  on              2    0[BANK0 ] int 
  5584 ;; Auto vars:     Size  Location     Type
  5585 ;;		None
  5586 ;; Return value:  Size  Location     Type
  5587 ;;                  1    wreg      void 
  5588 ;; Registers used:
  5589 ;;		wreg, status,2, status,0
  5590 ;; Tracked objects:
  5591 ;;		On entry : 0/0
  5592 ;;		On exit  : 0/0
  5593 ;;		Unchanged: 0/0
  5594 ;; Data sizes:     COMMON   BANK0   BANK1   BANK3   BANK2
  5595 ;;      Params:         0       2       0       0       0
  5596 ;;      Locals:         0       0       0       0       0
  5597 ;;      Temps:          0       0       0       0       0
  5598 ;;      Totals:         0       2       0       0       0
  5599 ;;Total ram usage:        2 bytes
  5600 ;; Hardware stack levels used:    1
  5601 ;; Hardware stack levels required when called:    2
  5602 ;; This function calls:
  5603 ;;		Nothing
  5604 ;; This function is called by:
  5605 ;;		_logica_Actuadores
  5606 ;; This function uses a non-reentrant model
  5607 ;;
  5608                           
  5609                           
  5610                           ;psect for function _set_Refrigerador
  5611  14F2                     _set_Refrigerador:
  5612  14F2                     l2150:	
  5613                           ;incstack = 0
  5614                           ; Regs used in _set_Refrigerador: [wreg+status,2+status,0]
  5615                           
  5616                           
  5617                           ;actuadores.c: 59: if (on)
  5618  14F2  1283               	bcf	3,5	;RP0=0, select bank0
  5619  14F3  1303               	bcf	3,6	;RP1=0, select bank0
  5620  14F4  0820               	movf	set_Refrigerador@on,w
  5621  14F5  0421               	iorwf	set_Refrigerador@on+1,w
  5622  14F6  1903               	btfsc	3,2
  5623  14F7  2CF9               	goto	u2281
  5624  14F8  2CFA               	goto	u2280
  5625  14F9                     u2281:
  5626  14F9  2CFC               	goto	l222
  5627  14FA                     u2280:
  5628  14FA                     l2152:
  5629                           
  5630                           ;actuadores.c: 60: PORTCbits.RC4 = 1;
  5631  14FA  1607               	bsf	7,4	;volatile
  5632  14FB  2CFD               	goto	l224
  5633  14FC                     l222:
  5634                           
  5635                           ;actuadores.c: 61: else;actuadores.c: 62: PORTCbits.RC4 = 0;
  5636  14FC  1207               	bcf	7,4	;volatile
  5637  14FD                     l224:
  5638  14FD  0008               	return
  5639  14FE                     __end_of_set_Refrigerador:
  5640                           
  5641                           	psect	text23
  5642  14E6                     __ptext23:	
  5643 ;; *************** function _set_Calefactor *****************
  5644 ;; Defined at:
  5645 ;;		line 65 in file "actuadores.c"
  5646 ;; Parameters:    Size  Location     Type
  5647 ;;  on              2    0[BANK0 ] int 
  5648 ;; Auto vars:     Size  Location     Type
  5649 ;;		None
  5650 ;; Return value:  Size  Location     Type
  5651 ;;                  1    wreg      void 
  5652 ;; Registers used:
  5653 ;;		wreg, status,2, status,0
  5654 ;; Tracked objects:
  5655 ;;		On entry : 0/0
  5656 ;;		On exit  : 0/0
  5657 ;;		Unchanged: 0/0
  5658 ;; Data sizes:     COMMON   BANK0   BANK1   BANK3   BANK2
  5659 ;;      Params:         0       2       0       0       0
  5660 ;;      Locals:         0       0       0       0       0
  5661 ;;      Temps:          0       0       0       0       0
  5662 ;;      Totals:         0       2       0       0       0
  5663 ;;Total ram usage:        2 bytes
  5664 ;; Hardware stack levels used:    1
  5665 ;; Hardware stack levels required when called:    2
  5666 ;; This function calls:
  5667 ;;		Nothing
  5668 ;; This function is called by:
  5669 ;;		_logica_Actuadores
  5670 ;; This function uses a non-reentrant model
  5671 ;;
  5672                           
  5673                           
  5674                           ;psect for function _set_Calefactor
  5675  14E6                     _set_Calefactor:
  5676  14E6                     l2154:	
  5677                           ;incstack = 0
  5678                           ; Regs used in _set_Calefactor: [wreg+status,2+status,0]
  5679                           
  5680                           
  5681                           ;actuadores.c: 66: if (on)
  5682  14E6  1283               	bcf	3,5	;RP0=0, select bank0
  5683  14E7  1303               	bcf	3,6	;RP1=0, select bank0
  5684  14E8  0820               	movf	set_Calefactor@on,w
  5685  14E9  0421               	iorwf	set_Calefactor@on+1,w
  5686  14EA  1903               	btfsc	3,2
  5687  14EB  2CED               	goto	u2291
  5688  14EC  2CEE               	goto	u2290
  5689  14ED                     u2291:
  5690  14ED  2CF0               	goto	l227
  5691  14EE                     u2290:
  5692  14EE                     l2156:
  5693                           
  5694                           ;actuadores.c: 67: PORTBbits.RB4 = 1;
  5695  14EE  1606               	bsf	6,4	;volatile
  5696  14EF  2CF1               	goto	l229
  5697  14F0                     l227:
  5698                           
  5699                           ;actuadores.c: 68: else;actuadores.c: 69: PORTBbits.RB4 = 0;
  5700  14F0  1206               	bcf	6,4	;volatile
  5701  14F1                     l229:
  5702  14F1  0008               	return
  5703  14F2                     __end_of_set_Calefactor:
  5704                           
  5705                           	psect	text24
  5706  05E8                     __ptext24:	
  5707 ;; *************** function _printf *****************
  5708 ;; Defined at:
  5709 ;;		line 477 in file "C:\Program Files\Microchip\xc8\v2.30\pic\sources\c90\common\doprnt.c"
  5710 ;; Parameters:    Size  Location     Type
  5711 ;;  f               2   75[BANK0 ] PTR const unsigned char 
  5712 ;;		 -> STR_18(35), STR_17(21), STR_16(28), STR_15(14), 
  5713 ;;		 -> STR_14(18), STR_13(32), STR_12(28), STR_11(16), 
  5714 ;;		 -> STR_10(28), STR_9(28), STR_8(11), STR_7(49), 
  5715 ;;		 -> STR_6(65), STR_5(29), STR_4(19), STR_3(25), 
  5716 ;;		 -> STR_2(15), STR_1(28), 
  5717 ;; Auto vars:     Size  Location     Type
  5718 ;;  tmpval          4    0        struct .
  5719 ;;  val             2    6[BANK1 ] unsigned int 
  5720 ;;  cp              2    0        PTR const unsigned char 
  5721 ;;  len             2    0        unsigned int 
  5722 ;;  c               1    8[BANK1 ] unsigned char 
  5723 ;;  prec            1    5[BANK1 ] char 
  5724 ;;  flag            1    4[BANK1 ] unsigned char 
  5725 ;;  ap              1    3[BANK1 ] PTR void [1]
  5726 ;;		 -> ?_printf(2), 
  5727 ;; Return value:  Size  Location     Type
  5728 ;;                  2   75[BANK0 ] int 
  5729 ;; Registers used:
  5730 ;;		wreg, fsr0l, fsr0h, status,2, status,0, btemp+1, pclath, cstack
  5731 ;; Tracked objects:
  5732 ;;		On entry : 0/0
  5733 ;;		On exit  : 0/0
  5734 ;;		Unchanged: 0/0
  5735 ;; Data sizes:     COMMON   BANK0   BANK1   BANK3   BANK2
  5736 ;;      Params:         0       4       0       0       0
  5737 ;;      Locals:         0       0       6       0       0
  5738 ;;      Temps:          0       0       3       0       0
  5739 ;;      Totals:         0       4       9       0       0
  5740 ;;Total ram usage:       13 bytes
  5741 ;; Hardware stack levels used:    1
  5742 ;; Hardware stack levels required when called:    3
  5743 ;; This function calls:
  5744 ;;		___lwdiv
  5745 ;;		___lwmod
  5746 ;;		_putch
  5747 ;; This function is called by:
  5748 ;;		_read_temperatura_exterior
  5749 ;;		_read_humedad
  5750 ;;		_read_intensidad_lumninosa
  5751 ;;		_read_potenciometro
  5752 ;;		_mensajeBienvenida
  5753 ;;		_mostrarConsigna
  5754 ;;		_mostrarDatos
  5755 ;;		_logica_Actuadores
  5756 ;;		_main
  5757 ;; This function uses a non-reentrant model
  5758 ;;
  5759                           
  5760                           
  5761                           ;psect for function _printf
  5762  05E8                     _printf:
  5763  05E8                     l2052:	
  5764                           ;incstack = 0
  5765                           ; Regs used in _printf: [wreg-fsr0h+status,2+status,0+btemp+1+pclath+cstack]
  5766                           
  5767                           
  5768                           ;doprnt.c: 479: va_list ap;;doprnt.c: 512: char c;;doprnt.c: 521: signed char prec;;dopr
      +                          nt.c: 525: unsigned char flag;;doprnt.c: 540: union {;doprnt.c: 541: unsigned long vd;;d
      +                          oprnt.c: 542: double integ;;doprnt.c: 543: } tmpval;;doprnt.c: 545: unsigned int val;;do
      +                          prnt.c: 546: unsigned len;;doprnt.c: 547: const char * cp;;doprnt.c: 550: *ap = __va_sta
      +                          rt();
  5769  05E8  306D               	movlw	(low ((?_printf| 0+2)))& (0+255)
  5770  05E9  1683               	bsf	3,5	;RP0=1, select bank1
  5771  05EA  1303               	bcf	3,6	;RP1=0, select bank1
  5772  05EB  00C2               	movwf	??_printf^(0+128)
  5773  05EC  0842               	movf	??_printf^(0+128),w
  5774  05ED  00C5               	movwf	printf@ap^(0+128)
  5775                           
  5776                           ;doprnt.c: 553: while((c = *f++)) {
  5777  05EE  2EE9               	goto	l2100
  5778  05EF                     l2054:
  5779                           
  5780                           ;doprnt.c: 555: if(c != '%')
  5781  05EF  3025               	movlw	37
  5782  05F0  064A               	xorwf	printf@c^(0+128),w
  5783  05F1  1903               	btfsc	3,2
  5784  05F2  2DF4               	goto	u2201
  5785  05F3  2DF5               	goto	u2200
  5786  05F4                     u2201:
  5787  05F4  2DFC               	goto	l2058
  5788  05F5                     u2200:
  5789  05F5                     l2056:
  5790                           
  5791                           ;doprnt.c: 557: {;doprnt.c: 558: (putch(c) );
  5792  05F5  084A               	movf	printf@c^(0+128),w
  5793  05F6  160A  118A  24D1  120A  118A  	fcall	_putch
  5794                           
  5795                           ;doprnt.c: 559: continue;
  5796  05FB  2EE9               	goto	l2100
  5797  05FC                     l2058:
  5798                           
  5799                           ;doprnt.c: 560: };doprnt.c: 565: flag = 0;
  5800  05FC  01C6               	clrf	printf@flag^(0+128)
  5801                           
  5802                           ;doprnt.c: 661: switch(c = *f++) {
  5803  05FD  2E05               	goto	l2064
  5804  05FE                     l2060:
  5805                           
  5806                           ;doprnt.c: 835: (putch(c) );
  5807  05FE  084A               	movf	printf@c^(0+128),w
  5808  05FF  160A  118A  24D1  120A  118A  	fcall	_putch
  5809                           
  5810                           ;doprnt.c: 836: continue;
  5811  0604  2EE9               	goto	l2100
  5812  0605                     l2064:
  5813  0605  1283               	bcf	3,5	;RP0=0, select bank0
  5814  0606  1303               	bcf	3,6	;RP1=0, select bank0
  5815  0607  086C               	movf	printf@f+1,w
  5816  0608  1683               	bsf	3,5	;RP0=1, select bank1
  5817  0609  1303               	bcf	3,6	;RP1=0, select bank1
  5818  060A  00C3               	movwf	(??_printf^(0+128)+1)
  5819  060B  1283               	bcf	3,5	;RP0=0, select bank0
  5820  060C  1303               	bcf	3,6	;RP1=0, select bank0
  5821  060D  086B               	movf	printf@f,w
  5822  060E  1683               	bsf	3,5	;RP0=1, select bank1
  5823  060F  1303               	bcf	3,6	;RP1=0, select bank1
  5824  0610  00C2               	movwf	??_printf^(0+128)
  5825  0611  1283               	bcf	3,5	;RP0=0, select bank0
  5826  0612  1303               	bcf	3,6	;RP1=0, select bank0
  5827  0613  0AEB               	incf	printf@f,f
  5828  0614  1903               	skipnz
  5829  0615  0AEC               	incf	printf@f+1,f
  5830  0616  1683               	bsf	3,5	;RP0=1, select bank1
  5831  0617  1303               	bcf	3,6	;RP1=0, select bank1
  5832  0618  0843               	movf	(??_printf+1)^(0+128),w
  5833  0619  1283               	bcf	3,5	;RP0=0, select bank0
  5834  061A  1303               	bcf	3,6	;RP1=0, select bank0
  5835  061B  00FF               	movwf	btemp+1
  5836  061C  1683               	bsf	3,5	;RP0=1, select bank1
  5837  061D  1303               	bcf	3,6	;RP1=0, select bank1
  5838  061E  0842               	movf	??_printf^(0+128),w
  5839  061F  0084               	movwf	4
  5840  0620  1283               	bcf	3,5	;RP0=0, select bank0
  5841  0621  1303               	bcf	3,6	;RP1=0, select bank0
  5842  0622  120A  118A  2100  120A  118A  	fcall	stringtab
  5843  0627  1683               	bsf	3,5	;RP0=1, select bank1
  5844  0628  1303               	bcf	3,6	;RP1=0, select bank1
  5845  0629  00CA               	movwf	printf@c^(0+128)
  5846                           
  5847                           ; Switch size 1, requested type "simple"
  5848                           ; Number of cases is 3, Range of values is 0 to 105
  5849                           ; switch strategies available:
  5850                           ; Name         Instructions Cycles
  5851                           ; simple_byte           10     6 (average)
  5852                           ; jumptable            260     6 (fixed)
  5853                           ;	Chosen strategy is simple_byte
  5854  062A  3A00               	xorlw	0	; case 0
  5855  062B  1903               	skipnz
  5856  062C  2F15               	goto	l463
  5857  062D  3A64               	xorlw	100	; case 100
  5858  062E  1903               	skipnz
  5859  062F  2E34               	goto	l2066
  5860  0630  3A0D               	xorlw	13	; case 105
  5861  0631  1903               	skipnz
  5862  0632  2E34               	goto	l2066
  5863  0633  2DFE               	goto	l2060
  5864  0634                     l2066:
  5865                           
  5866                           ;doprnt.c: 1279: {;doprnt.c: 1285: val = (unsigned int)(*(int *)__va_arg((*(int **)ap), 
      +                          (int)0));
  5867  0634  0845               	movf	printf@ap^(0+128),w
  5868  0635  0084               	movwf	4
  5869  0636  1383               	bcf	3,7	;select IRP bank0
  5870  0637  0800               	movf	0,w
  5871  0638  00C8               	movwf	printf@val^(0+128)
  5872  0639  0A84               	incf	4,f
  5873  063A  0800               	movf	0,w
  5874  063B  00C9               	movwf	(printf@val+1)^(0+128)
  5875  063C                     l2068:
  5876  063C  3002               	movlw	2
  5877  063D  00C2               	movwf	??_printf^(0+128)
  5878  063E  0842               	movf	??_printf^(0+128),w
  5879  063F  07C5               	addwf	printf@ap^(0+128),f
  5880  0640                     l2070:
  5881                           
  5882                           ;doprnt.c: 1287: if((int)val < 0) {
  5883  0640  1FC9               	btfss	(printf@val+1)^(0+128),7
  5884  0641  2E43               	goto	u2211
  5885  0642  2E44               	goto	u2210
  5886  0643                     u2211:
  5887  0643  2E4D               	goto	l2076
  5888  0644                     u2210:
  5889  0644                     l2072:
  5890                           
  5891                           ;doprnt.c: 1288: flag |= 0x03;
  5892  0644  3003               	movlw	3
  5893  0645  00C2               	movwf	??_printf^(0+128)
  5894  0646  0842               	movf	??_printf^(0+128),w
  5895  0647  04C6               	iorwf	printf@flag^(0+128),f
  5896  0648                     l2074:
  5897                           
  5898                           ;doprnt.c: 1289: val = -val;
  5899  0648  09C8               	comf	printf@val^(0+128),f
  5900  0649  09C9               	comf	(printf@val+1)^(0+128),f
  5901  064A  0AC8               	incf	printf@val^(0+128),f
  5902  064B  1903               	skipnz
  5903  064C  0AC9               	incf	(printf@val+1)^(0+128),f
  5904  064D                     l2076:
  5905                           
  5906                           ;doprnt.c: 1290: };doprnt.c: 1292: };doprnt.c: 1331: for(c = 1 ; c != sizeof dpowers/siz
      +                          eof dpowers[0] ; c++)
  5907  064D  01CA               	clrf	printf@c^(0+128)
  5908  064E  0ACA               	incf	printf@c^(0+128),f
  5909  064F                     l2082:
  5910                           
  5911                           ;doprnt.c: 1332: if(val < dpowers[c])
  5912  064F  084A               	movf	printf@c^(0+128),w
  5913  0650  00C2               	movwf	??_printf^(0+128)
  5914  0651  0742               	addwf	??_printf^(0+128),w
  5915  0652  3E12               	addlw	low (_dpowers| (0+32768))
  5916  0653  0084               	movwf	4
  5917  0654  3081               	movlw	high (_dpowers| (0+32768))
  5918  0655  1803               	skipnc
  5919  0656  3E01               	addlw	1
  5920  0657  1283               	bcf	3,5	;RP0=0, select bank0
  5921  0658  1303               	bcf	3,6	;RP1=0, select bank0
  5922  0659  00FF               	movwf	btemp+1
  5923  065A  120A  118A  2100  120A  118A  	fcall	stringtab
  5924  065F  1683               	bsf	3,5	;RP0=1, select bank1
  5925  0660  1303               	bcf	3,6	;RP1=0, select bank1
  5926  0661  00C3               	movwf	(??_printf+1)^(0+128)
  5927  0662  1283               	bcf	3,5	;RP0=0, select bank0
  5928  0663  1303               	bcf	3,6	;RP1=0, select bank0
  5929  0664  120A  118A  2100  120A  118A  	fcall	stringtab
  5930  0669  1683               	bsf	3,5	;RP0=1, select bank1
  5931  066A  1303               	bcf	3,6	;RP1=0, select bank1
  5932  066B  00C4               	movwf	((??_printf+1)^(0+128)+1)
  5933  066C  0844               	movf	(??_printf+2)^(0+128),w
  5934  066D  0249               	subwf	(printf@val+1)^(0+128),w
  5935  066E  1D03               	skipz
  5936  066F  2E72               	goto	u2225
  5937  0670  0843               	movf	(??_printf+1)^(0+128),w
  5938  0671  0248               	subwf	printf@val^(0+128),w
  5939  0672                     u2225:
  5940  0672  1803               	skipnc
  5941  0673  2E75               	goto	u2221
  5942  0674  2E76               	goto	u2220
  5943  0675                     u2221:
  5944  0675  2E77               	goto	l2086
  5945  0676                     u2220:
  5946  0676  2E81               	goto	l2088
  5947  0677                     l2086:
  5948  0677  3001               	movlw	1
  5949  0678  00C2               	movwf	??_printf^(0+128)
  5950  0679  0842               	movf	??_printf^(0+128),w
  5951  067A  07CA               	addwf	printf@c^(0+128),f
  5952  067B  3005               	movlw	5
  5953  067C  064A               	xorwf	printf@c^(0+128),w
  5954  067D  1D03               	btfss	3,2
  5955  067E  2E80               	goto	u2231
  5956  067F  2E81               	goto	u2230
  5957  0680                     u2231:
  5958  0680  2E4F               	goto	l2082
  5959  0681                     u2230:
  5960  0681                     l2088:
  5961                           
  5962                           ;doprnt.c: 1448: {;doprnt.c: 1464: if(flag & 0x03)
  5963  0681  0846               	movf	printf@flag^(0+128),w
  5964  0682  3903               	andlw	3
  5965  0683  1903               	btfsc	3,2
  5966  0684  2E86               	goto	u2241
  5967  0685  2E87               	goto	u2240
  5968  0686                     u2241:
  5969  0686  2E8D               	goto	l2092
  5970  0687                     u2240:
  5971  0687                     l2090:
  5972                           
  5973                           ;doprnt.c: 1465: (putch('-') );
  5974  0687  302D               	movlw	45
  5975  0688  160A  118A  24D1  120A  118A  	fcall	_putch
  5976  068D                     l2092:
  5977                           
  5978                           ;doprnt.c: 1495: };doprnt.c: 1498: prec = c;
  5979  068D  1683               	bsf	3,5	;RP0=1, select bank1
  5980  068E  1303               	bcf	3,6	;RP1=0, select bank1
  5981  068F  084A               	movf	printf@c^(0+128),w
  5982  0690  00C2               	movwf	??_printf^(0+128)
  5983  0691  0842               	movf	??_printf^(0+128),w
  5984  0692  00C7               	movwf	printf@prec^(0+128)
  5985                           
  5986                           ;doprnt.c: 1500: while(prec--) {
  5987  0693  2EDE               	goto	l2098
  5988  0694                     l2094:
  5989                           
  5990                           ;doprnt.c: 1504: {;doprnt.c: 1515: c = (val / dpowers[(unsigned char)prec]) % 10 + '0';
  5991  0694  300A               	movlw	10
  5992  0695  1283               	bcf	3,5	;RP0=0, select bank0
  5993  0696  1303               	bcf	3,6	;RP1=0, select bank0
  5994  0697  00A8               	movwf	___lwmod@divisor
  5995  0698  3000               	movlw	0
  5996  0699  00A9               	movwf	___lwmod@divisor+1
  5997  069A  1683               	bsf	3,5	;RP0=1, select bank1
  5998  069B  1303               	bcf	3,6	;RP1=0, select bank1
  5999  069C  0847               	movf	printf@prec^(0+128),w
  6000  069D  00C2               	movwf	??_printf^(0+128)
  6001  069E  0742               	addwf	??_printf^(0+128),w
  6002  069F  3E12               	addlw	low (_dpowers| (0+32768))
  6003  06A0  0084               	movwf	4
  6004  06A1  3081               	movlw	high (_dpowers| (0+32768))
  6005  06A2  1803               	skipnc
  6006  06A3  3E01               	addlw	1
  6007  06A4  1283               	bcf	3,5	;RP0=0, select bank0
  6008  06A5  1303               	bcf	3,6	;RP1=0, select bank0
  6009  06A6  00FF               	movwf	btemp+1
  6010  06A7  120A  118A  2100  120A  118A  	fcall	stringtab
  6011  06AC  00A0               	movwf	___lwdiv@divisor
  6012  06AD  120A  118A  2100  120A  118A  	fcall	stringtab
  6013  06B2  00A1               	movwf	___lwdiv@divisor+1
  6014  06B3  1683               	bsf	3,5	;RP0=1, select bank1
  6015  06B4  1303               	bcf	3,6	;RP1=0, select bank1
  6016  06B5  0849               	movf	(printf@val+1)^(0+128),w
  6017  06B6  1283               	bcf	3,5	;RP0=0, select bank0
  6018  06B7  1303               	bcf	3,6	;RP1=0, select bank0
  6019  06B8  00A3               	movwf	___lwdiv@dividend+1
  6020  06B9  1683               	bsf	3,5	;RP0=1, select bank1
  6021  06BA  1303               	bcf	3,6	;RP1=0, select bank1
  6022  06BB  0848               	movf	printf@val^(0+128),w
  6023  06BC  1283               	bcf	3,5	;RP0=0, select bank0
  6024  06BD  1303               	bcf	3,6	;RP1=0, select bank0
  6025  06BE  00A2               	movwf	___lwdiv@dividend
  6026  06BF  160A  118A  26F8  120A  118A  	fcall	___lwdiv
  6027  06C4  1283               	bcf	3,5	;RP0=0, select bank0
  6028  06C5  1303               	bcf	3,6	;RP1=0, select bank0
  6029  06C6  0821               	movf	?___lwdiv+1,w
  6030  06C7  00AB               	movwf	___lwmod@dividend+1
  6031  06C8  0820               	movf	?___lwdiv,w
  6032  06C9  00AA               	movwf	___lwmod@dividend
  6033  06CA  160A  118A  26BC  120A  118A  	fcall	___lwmod
  6034  06CF  1283               	bcf	3,5	;RP0=0, select bank0
  6035  06D0  1303               	bcf	3,6	;RP1=0, select bank0
  6036  06D1  0828               	movf	?___lwmod,w
  6037  06D2  3E30               	addlw	48
  6038  06D3  1683               	bsf	3,5	;RP0=1, select bank1
  6039  06D4  1303               	bcf	3,6	;RP1=0, select bank1
  6040  06D5  00C3               	movwf	(??_printf+1)^(0+128)
  6041  06D6  0843               	movf	(??_printf+1)^(0+128),w
  6042  06D7  00CA               	movwf	printf@c^(0+128)
  6043  06D8                     l2096:
  6044                           
  6045                           ;doprnt.c: 1549: };doprnt.c: 1550: (putch(c) );
  6046  06D8  084A               	movf	printf@c^(0+128),w
  6047  06D9  160A  118A  24D1  120A  118A  	fcall	_putch
  6048  06DE                     l2098:
  6049  06DE  30FF               	movlw	255
  6050  06DF  1683               	bsf	3,5	;RP0=1, select bank1
  6051  06E0  1303               	bcf	3,6	;RP1=0, select bank1
  6052  06E1  00C2               	movwf	??_printf^(0+128)
  6053  06E2  0842               	movf	??_printf^(0+128),w
  6054  06E3  07C7               	addwf	printf@prec^(0+128),f
  6055  06E4  0A47               	incf	printf@prec^(0+128),w
  6056  06E5  1D03               	btfss	3,2
  6057  06E6  2EE8               	goto	u2251
  6058  06E7  2EE9               	goto	u2250
  6059  06E8                     u2251:
  6060  06E8  2E94               	goto	l2094
  6061  06E9                     u2250:
  6062  06E9                     l2100:
  6063  06E9  1283               	bcf	3,5	;RP0=0, select bank0
  6064  06EA  1303               	bcf	3,6	;RP1=0, select bank0
  6065  06EB  086C               	movf	printf@f+1,w
  6066  06EC  1683               	bsf	3,5	;RP0=1, select bank1
  6067  06ED  1303               	bcf	3,6	;RP1=0, select bank1
  6068  06EE  00C3               	movwf	(??_printf^(0+128)+1)
  6069  06EF  1283               	bcf	3,5	;RP0=0, select bank0
  6070  06F0  1303               	bcf	3,6	;RP1=0, select bank0
  6071  06F1  086B               	movf	printf@f,w
  6072  06F2  1683               	bsf	3,5	;RP0=1, select bank1
  6073  06F3  1303               	bcf	3,6	;RP1=0, select bank1
  6074  06F4  00C2               	movwf	??_printf^(0+128)
  6075  06F5  1283               	bcf	3,5	;RP0=0, select bank0
  6076  06F6  1303               	bcf	3,6	;RP1=0, select bank0
  6077  06F7  0AEB               	incf	printf@f,f
  6078  06F8  1903               	skipnz
  6079  06F9  0AEC               	incf	printf@f+1,f
  6080  06FA  1683               	bsf	3,5	;RP0=1, select bank1
  6081  06FB  1303               	bcf	3,6	;RP1=0, select bank1
  6082  06FC  0843               	movf	(??_printf+1)^(0+128),w
  6083  06FD  1283               	bcf	3,5	;RP0=0, select bank0
  6084  06FE  1303               	bcf	3,6	;RP1=0, select bank0
  6085  06FF  00FF               	movwf	btemp+1
  6086  0700  1683               	bsf	3,5	;RP0=1, select bank1
  6087  0701  1303               	bcf	3,6	;RP1=0, select bank1
  6088  0702  0842               	movf	??_printf^(0+128),w
  6089  0703  0084               	movwf	4
  6090  0704  1283               	bcf	3,5	;RP0=0, select bank0
  6091  0705  1303               	bcf	3,6	;RP1=0, select bank0
  6092  0706  120A  118A  2100  120A  118A  	fcall	stringtab
  6093  070B  1683               	bsf	3,5	;RP0=1, select bank1
  6094  070C  1303               	bcf	3,6	;RP1=0, select bank1
  6095  070D  00C4               	movwf	(??_printf+2)^(0+128)
  6096  070E  0844               	movf	(??_printf+2)^(0+128),w
  6097  070F  00CA               	movwf	printf@c^(0+128)
  6098  0710  084A               	movf	printf@c^(0+128),w
  6099  0711  1D03               	btfss	3,2
  6100  0712  2F14               	goto	u2261
  6101  0713  2F15               	goto	u2260
  6102  0714                     u2261:
  6103  0714  2DEF               	goto	l2054
  6104  0715                     u2260:
  6105  0715                     l463:
  6106  0715  0008               	return
  6107  0716                     __end_of_printf:
  6108                           
  6109                           	psect	text25
  6110  14D1                     __ptext25:	
  6111 ;; *************** function _putch *****************
  6112 ;; Defined at:
  6113 ;;		line 38 in file "display.c"
  6114 ;; Parameters:    Size  Location     Type
  6115 ;;  c               1    wreg     unsigned char 
  6116 ;; Auto vars:     Size  Location     Type
  6117 ;;  c               1    0[BANK0 ] unsigned char 
  6118 ;; Return value:  Size  Location     Type
  6119 ;;                  1    wreg      void 
  6120 ;; Registers used:
  6121 ;;		wreg
  6122 ;; Tracked objects:
  6123 ;;		On entry : 0/0
  6124 ;;		On exit  : 0/0
  6125 ;;		Unchanged: 0/0
  6126 ;; Data sizes:     COMMON   BANK0   BANK1   BANK3   BANK2
  6127 ;;      Params:         0       0       0       0       0
  6128 ;;      Locals:         0       1       0       0       0
  6129 ;;      Temps:          0       0       0       0       0
  6130 ;;      Totals:         0       1       0       0       0
  6131 ;;Total ram usage:        1 bytes
  6132 ;; Hardware stack levels used:    1
  6133 ;; Hardware stack levels required when called:    2
  6134 ;; This function calls:
  6135 ;;		Nothing
  6136 ;; This function is called by:
  6137 ;;		_printf
  6138 ;; This function uses a non-reentrant model
  6139 ;;
  6140                           
  6141                           
  6142                           ;psect for function _putch
  6143  14D1                     _putch:
  6144                           
  6145                           ;incstack = 0
  6146                           ; Regs used in _putch: [wreg]
  6147                           ;putch@c stored from wreg
  6148  14D1  1283               	bcf	3,5	;RP0=0, select bank0
  6149  14D2  1303               	bcf	3,6	;RP1=0, select bank0
  6150  14D3  00A0               	movwf	putch@c
  6151  14D4                     l1826:
  6152  14D4                     l142:	
  6153                           ;display.c: 39: while (!TXIF)
  6154                           
  6155  14D4  1E0C               	btfss	12,4	;volatile
  6156  14D5  2CD7               	goto	u1581
  6157  14D6  2CD8               	goto	u1580
  6158  14D7                     u1581:
  6159  14D7  2CD4               	goto	l142
  6160  14D8                     u1580:
  6161  14D8                     l1828:
  6162                           
  6163                           ;display.c: 41: TXREG = c;
  6164  14D8  0820               	movf	putch@c,w
  6165  14D9  0099               	movwf	25	;volatile
  6166  14DA                     l145:
  6167  14DA  0008               	return
  6168  14DB                     __end_of_putch:
  6169                           
  6170                           	psect	text26
  6171  16BC                     __ptext26:	
  6172 ;; *************** function ___lwmod *****************
  6173 ;; Defined at:
  6174 ;;		line 5 in file "C:\Program Files\Microchip\xc8\v2.30\pic\sources\c90\common\lwmod.c"
  6175 ;; Parameters:    Size  Location     Type
  6176 ;;  divisor         2    8[BANK0 ] unsigned int 
  6177 ;;  dividend        2   10[BANK0 ] unsigned int 
  6178 ;; Auto vars:     Size  Location     Type
  6179 ;;  counter         1   13[BANK0 ] unsigned char 
  6180 ;; Return value:  Size  Location     Type
  6181 ;;                  2    8[BANK0 ] unsigned int 
  6182 ;; Registers used:
  6183 ;;		wreg, status,2, status,0
  6184 ;; Tracked objects:
  6185 ;;		On entry : 0/0
  6186 ;;		On exit  : 0/0
  6187 ;;		Unchanged: 0/0
  6188 ;; Data sizes:     COMMON   BANK0   BANK1   BANK3   BANK2
  6189 ;;      Params:         0       4       0       0       0
  6190 ;;      Locals:         0       1       0       0       0
  6191 ;;      Temps:          0       1       0       0       0
  6192 ;;      Totals:         0       6       0       0       0
  6193 ;;Total ram usage:        6 bytes
  6194 ;; Hardware stack levels used:    1
  6195 ;; Hardware stack levels required when called:    2
  6196 ;; This function calls:
  6197 ;;		Nothing
  6198 ;; This function is called by:
  6199 ;;		_printf
  6200 ;; This function uses a non-reentrant model
  6201 ;;
  6202                           
  6203                           
  6204                           ;psect for function ___lwmod
  6205  16BC                     ___lwmod:
  6206  16BC                     l2026:	
  6207                           ;incstack = 0
  6208                           ; Regs used in ___lwmod: [wreg+status,2+status,0]
  6209                           
  6210  16BC  1283               	bcf	3,5	;RP0=0, select bank0
  6211  16BD  1303               	bcf	3,6	;RP1=0, select bank0
  6212  16BE  0828               	movf	___lwmod@divisor,w
  6213  16BF  0429               	iorwf	___lwmod@divisor+1,w
  6214  16C0  1903               	btfsc	3,2
  6215  16C1  2EC3               	goto	u2141
  6216  16C2  2EC4               	goto	u2140
  6217  16C3                     u2141:
  6218  16C3  2EF3               	goto	l2044
  6219  16C4                     u2140:
  6220  16C4                     l2028:
  6221  16C4  01AD               	clrf	___lwmod@counter
  6222  16C5  0AAD               	incf	___lwmod@counter,f
  6223  16C6  2ED2               	goto	l2034
  6224  16C7                     l2030:
  6225  16C7  3001               	movlw	1
  6226  16C8                     u2155:
  6227  16C8  1003               	clrc
  6228  16C9  0DA8               	rlf	___lwmod@divisor,f
  6229  16CA  0DA9               	rlf	___lwmod@divisor+1,f
  6230  16CB  3EFF               	addlw	-1
  6231  16CC  1D03               	skipz
  6232  16CD  2EC8               	goto	u2155
  6233  16CE                     l2032:
  6234  16CE  3001               	movlw	1
  6235  16CF  00AC               	movwf	??___lwmod
  6236  16D0  082C               	movf	??___lwmod,w
  6237  16D1  07AD               	addwf	___lwmod@counter,f
  6238  16D2                     l2034:
  6239  16D2  1FA9               	btfss	___lwmod@divisor+1,7
  6240  16D3  2ED5               	goto	u2161
  6241  16D4  2ED6               	goto	u2160
  6242  16D5                     u2161:
  6243  16D5  2EC7               	goto	l2030
  6244  16D6                     u2160:
  6245  16D6                     l2036:
  6246  16D6  0829               	movf	___lwmod@divisor+1,w
  6247  16D7  022B               	subwf	___lwmod@dividend+1,w
  6248  16D8  1D03               	skipz
  6249  16D9  2EDC               	goto	u2175
  6250  16DA  0828               	movf	___lwmod@divisor,w
  6251  16DB  022A               	subwf	___lwmod@dividend,w
  6252  16DC                     u2175:
  6253  16DC  1C03               	skipc
  6254  16DD  2EDF               	goto	u2171
  6255  16DE  2EE0               	goto	u2170
  6256  16DF                     u2171:
  6257  16DF  2EE6               	goto	l2040
  6258  16E0                     u2170:
  6259  16E0                     l2038:
  6260  16E0  0828               	movf	___lwmod@divisor,w
  6261  16E1  02AA               	subwf	___lwmod@dividend,f
  6262  16E2  0829               	movf	___lwmod@divisor+1,w
  6263  16E3  1C03               	skipc
  6264  16E4  03AB               	decf	___lwmod@dividend+1,f
  6265  16E5  02AB               	subwf	___lwmod@dividend+1,f
  6266  16E6                     l2040:
  6267  16E6  3001               	movlw	1
  6268  16E7                     u2185:
  6269  16E7  1003               	clrc
  6270  16E8  0CA9               	rrf	___lwmod@divisor+1,f
  6271  16E9  0CA8               	rrf	___lwmod@divisor,f
  6272  16EA  3EFF               	addlw	-1
  6273  16EB  1D03               	skipz
  6274  16EC  2EE7               	goto	u2185
  6275  16ED                     l2042:
  6276  16ED  3001               	movlw	1
  6277  16EE  02AD               	subwf	___lwmod@counter,f
  6278  16EF  1D03               	btfss	3,2
  6279  16F0  2EF2               	goto	u2191
  6280  16F1  2EF3               	goto	u2190
  6281  16F2                     u2191:
  6282  16F2  2ED6               	goto	l2036
  6283  16F3                     u2190:
  6284  16F3                     l2044:
  6285  16F3  082B               	movf	___lwmod@dividend+1,w
  6286  16F4  00A9               	movwf	?___lwmod+1
  6287  16F5  082A               	movf	___lwmod@dividend,w
  6288  16F6  00A8               	movwf	?___lwmod
  6289  16F7                     l885:
  6290  16F7  0008               	return
  6291  16F8                     __end_of___lwmod:
  6292                           
  6293                           	psect	text27
  6294  16F8                     __ptext27:	
  6295 ;; *************** function ___lwdiv *****************
  6296 ;; Defined at:
  6297 ;;		line 5 in file "C:\Program Files\Microchip\xc8\v2.30\pic\sources\c90\common\lwdiv.c"
  6298 ;; Parameters:    Size  Location     Type
  6299 ;;  divisor         2    0[BANK0 ] unsigned int 
  6300 ;;  dividend        2    2[BANK0 ] unsigned int 
  6301 ;; Auto vars:     Size  Location     Type
  6302 ;;  quotient        2    5[BANK0 ] unsigned int 
  6303 ;;  counter         1    7[BANK0 ] unsigned char 
  6304 ;; Return value:  Size  Location     Type
  6305 ;;                  2    0[BANK0 ] unsigned int 
  6306 ;; Registers used:
  6307 ;;		wreg, status,2, status,0
  6308 ;; Tracked objects:
  6309 ;;		On entry : 0/0
  6310 ;;		On exit  : 0/0
  6311 ;;		Unchanged: 0/0
  6312 ;; Data sizes:     COMMON   BANK0   BANK1   BANK3   BANK2
  6313 ;;      Params:         0       4       0       0       0
  6314 ;;      Locals:         0       3       0       0       0
  6315 ;;      Temps:          0       1       0       0       0
  6316 ;;      Totals:         0       8       0       0       0
  6317 ;;Total ram usage:        8 bytes
  6318 ;; Hardware stack levels used:    1
  6319 ;; Hardware stack levels required when called:    2
  6320 ;; This function calls:
  6321 ;;		Nothing
  6322 ;; This function is called by:
  6323 ;;		_printf
  6324 ;; This function uses a non-reentrant model
  6325 ;;
  6326                           
  6327                           
  6328                           ;psect for function ___lwdiv
  6329  16F8                     ___lwdiv:
  6330  16F8                     l2000:	
  6331                           ;incstack = 0
  6332                           ; Regs used in ___lwdiv: [wreg+status,2+status,0]
  6333                           
  6334  16F8  1283               	bcf	3,5	;RP0=0, select bank0
  6335  16F9  1303               	bcf	3,6	;RP1=0, select bank0
  6336  16FA  01A5               	clrf	___lwdiv@quotient
  6337  16FB  01A6               	clrf	___lwdiv@quotient+1
  6338  16FC                     l2002:
  6339  16FC  0820               	movf	___lwdiv@divisor,w
  6340  16FD  0421               	iorwf	___lwdiv@divisor+1,w
  6341  16FE  1903               	btfsc	3,2
  6342  16FF  2F01               	goto	u2071
  6343  1700  2F02               	goto	u2070
  6344  1701                     u2071:
  6345  1701  2F39               	goto	l2022
  6346  1702                     u2070:
  6347  1702                     l2004:
  6348  1702  01A7               	clrf	___lwdiv@counter
  6349  1703  0AA7               	incf	___lwdiv@counter,f
  6350  1704  2F10               	goto	l2010
  6351  1705                     l2006:
  6352  1705  3001               	movlw	1
  6353  1706                     u2085:
  6354  1706  1003               	clrc
  6355  1707  0DA0               	rlf	___lwdiv@divisor,f
  6356  1708  0DA1               	rlf	___lwdiv@divisor+1,f
  6357  1709  3EFF               	addlw	-1
  6358  170A  1D03               	skipz
  6359  170B  2F06               	goto	u2085
  6360  170C                     l2008:
  6361  170C  3001               	movlw	1
  6362  170D  00A4               	movwf	??___lwdiv
  6363  170E  0824               	movf	??___lwdiv,w
  6364  170F  07A7               	addwf	___lwdiv@counter,f
  6365  1710                     l2010:
  6366  1710  1FA1               	btfss	___lwdiv@divisor+1,7
  6367  1711  2F13               	goto	u2091
  6368  1712  2F14               	goto	u2090
  6369  1713                     u2091:
  6370  1713  2F05               	goto	l2006
  6371  1714                     u2090:
  6372  1714                     l2012:
  6373  1714  3001               	movlw	1
  6374  1715                     u2105:
  6375  1715  1003               	clrc
  6376  1716  0DA5               	rlf	___lwdiv@quotient,f
  6377  1717  0DA6               	rlf	___lwdiv@quotient+1,f
  6378  1718  3EFF               	addlw	-1
  6379  1719  1D03               	skipz
  6380  171A  2F15               	goto	u2105
  6381  171B  0821               	movf	___lwdiv@divisor+1,w
  6382  171C  0223               	subwf	___lwdiv@dividend+1,w
  6383  171D  1D03               	skipz
  6384  171E  2F21               	goto	u2115
  6385  171F  0820               	movf	___lwdiv@divisor,w
  6386  1720  0222               	subwf	___lwdiv@dividend,w
  6387  1721                     u2115:
  6388  1721  1C03               	skipc
  6389  1722  2F24               	goto	u2111
  6390  1723  2F25               	goto	u2110
  6391  1724                     u2111:
  6392  1724  2F2C               	goto	l2018
  6393  1725                     u2110:
  6394  1725                     l2014:
  6395  1725  0820               	movf	___lwdiv@divisor,w
  6396  1726  02A2               	subwf	___lwdiv@dividend,f
  6397  1727  0821               	movf	___lwdiv@divisor+1,w
  6398  1728  1C03               	skipc
  6399  1729  03A3               	decf	___lwdiv@dividend+1,f
  6400  172A  02A3               	subwf	___lwdiv@dividend+1,f
  6401  172B                     l2016:
  6402  172B  1425               	bsf	___lwdiv@quotient,0
  6403  172C                     l2018:
  6404  172C  3001               	movlw	1
  6405  172D                     u2125:
  6406  172D  1003               	clrc
  6407  172E  0CA1               	rrf	___lwdiv@divisor+1,f
  6408  172F  0CA0               	rrf	___lwdiv@divisor,f
  6409  1730  3EFF               	addlw	-1
  6410  1731  1D03               	skipz
  6411  1732  2F2D               	goto	u2125
  6412  1733                     l2020:
  6413  1733  3001               	movlw	1
  6414  1734  02A7               	subwf	___lwdiv@counter,f
  6415  1735  1D03               	btfss	3,2
  6416  1736  2F38               	goto	u2131
  6417  1737  2F39               	goto	u2130
  6418  1738                     u2131:
  6419  1738  2F14               	goto	l2012
  6420  1739                     u2130:
  6421  1739                     l2022:
  6422  1739  0826               	movf	___lwdiv@quotient+1,w
  6423  173A  00A1               	movwf	?___lwdiv+1
  6424  173B  0825               	movf	___lwdiv@quotient,w
  6425  173C  00A0               	movwf	?___lwdiv
  6426  173D                     l875:
  6427  173D  0008               	return
  6428  173E                     __end_of___lwdiv:
  6429                           
  6430                           	psect	text28
  6431  150A                     __ptext28:	
  6432 ;; *************** function _get_temperatura_interior *****************
  6433 ;; Defined at:
  6434 ;;		line 71 in file "sensores.c"
  6435 ;; Parameters:    Size  Location     Type
  6436 ;;		None
  6437 ;; Auto vars:     Size  Location     Type
  6438 ;;		None
  6439 ;; Return value:  Size  Location     Type
  6440 ;;                  2    0[BANK0 ] int 
  6441 ;; Registers used:
  6442 ;;		wreg
  6443 ;; Tracked objects:
  6444 ;;		On entry : 0/0
  6445 ;;		On exit  : 0/0
  6446 ;;		Unchanged: 0/0
  6447 ;; Data sizes:     COMMON   BANK0   BANK1   BANK3   BANK2
  6448 ;;      Params:         0       2       0       0       0
  6449 ;;      Locals:         0       0       0       0       0
  6450 ;;      Temps:          0       0       0       0       0
  6451 ;;      Totals:         0       2       0       0       0
  6452 ;;Total ram usage:        2 bytes
  6453 ;; Hardware stack levels used:    1
  6454 ;; Hardware stack levels required when called:    2
  6455 ;; This function calls:
  6456 ;;		Nothing
  6457 ;; This function is called by:
  6458 ;;		_mostrarDatos
  6459 ;;		_logica_Actuadores
  6460 ;; This function uses a non-reentrant model
  6461 ;;
  6462                           
  6463                           
  6464                           ;psect for function _get_temperatura_interior
  6465  150A                     _get_temperatura_interior:
  6466  150A                     l2048:	
  6467                           ;incstack = 0
  6468                           ; Regs used in _get_temperatura_interior: [wreg]
  6469                           
  6470                           
  6471                           ;sensores.c: 73: return tempint;
  6472  150A  1683               	bsf	3,5	;RP0=1, select bank1
  6473  150B  1303               	bcf	3,6	;RP1=0, select bank1
  6474  150C  083D               	movf	(_tempint+1)^(0+128),w
  6475  150D  1283               	bcf	3,5	;RP0=0, select bank0
  6476  150E  1303               	bcf	3,6	;RP1=0, select bank0
  6477  150F  00A1               	movwf	?_get_temperatura_interior+1
  6478  1510  1683               	bsf	3,5	;RP0=1, select bank1
  6479  1511  1303               	bcf	3,6	;RP1=0, select bank1
  6480  1512  083C               	movf	_tempint^(0+128),w
  6481  1513  1283               	bcf	3,5	;RP0=0, select bank0
  6482  1514  1303               	bcf	3,6	;RP1=0, select bank0
  6483  1515  00A0               	movwf	?_get_temperatura_interior
  6484  1516                     l48:
  6485  1516  0008               	return
  6486  1517                     __end_of_get_temperatura_interior:
  6487                           
  6488                           	psect	text29
  6489  164B                     __ptext29:	
  6490 ;; *************** function _get_tempObjetivo *****************
  6491 ;; Defined at:
  6492 ;;		line 187 in file "sensores.c"
  6493 ;; Parameters:    Size  Location     Type
  6494 ;;		None
  6495 ;; Auto vars:     Size  Location     Type
  6496 ;;		None
  6497 ;; Return value:  Size  Location     Type
  6498 ;;                  2   15[BANK0 ] int 
  6499 ;; Registers used:
  6500 ;;		wreg, status,2, status,0, pclath, cstack
  6501 ;; Tracked objects:
  6502 ;;		On entry : 0/0
  6503 ;;		On exit  : 0/0
  6504 ;;		Unchanged: 0/0
  6505 ;; Data sizes:     COMMON   BANK0   BANK1   BANK3   BANK2
  6506 ;;      Params:         0       2       0       0       0
  6507 ;;      Locals:         0       0       0       0       0
  6508 ;;      Temps:          0       0       0       0       0
  6509 ;;      Totals:         0       2       0       0       0
  6510 ;;Total ram usage:        2 bytes
  6511 ;; Hardware stack levels used:    1
  6512 ;; Hardware stack levels required when called:    3
  6513 ;; This function calls:
  6514 ;;		___awdiv
  6515 ;; This function is called by:
  6516 ;;		_read_potenciometro
  6517 ;;		_mostrarConsigna
  6518 ;;		_logica_Actuadores
  6519 ;; This function uses a non-reentrant model
  6520 ;;
  6521                           
  6522                           
  6523                           ;psect for function _get_tempObjetivo
  6524  164B                     _get_tempObjetivo:
  6525  164B                     l2114:	
  6526                           ;incstack = 0
  6527                           ; Regs used in _get_tempObjetivo: [wreg+status,2+status,0+pclath+cstack]
  6528                           
  6529                           
  6530                           ;sensores.c: 189: if (numeroLecturas == 4) {
  6531  164B  3004               	movlw	4
  6532  164C  1683               	bsf	3,5	;RP0=1, select bank1
  6533  164D  1303               	bcf	3,6	;RP1=0, select bank1
  6534  164E  0632               	xorwf	_numeroLecturas^(0+128),w
  6535  164F  0433               	iorwf	(_numeroLecturas+1)^(0+128),w
  6536  1650  1D03               	btfss	3,2
  6537  1651  2E53               	goto	u2271
  6538  1652  2E54               	goto	u2270
  6539  1653                     u2271:
  6540  1653  2E7B               	goto	l2122
  6541  1654                     u2270:
  6542  1654                     l2116:
  6543                           
  6544                           ;sensores.c: 190: tempObjetivo = sumaLecturas / numeroLecturas;
  6545  1654  0833               	movf	(_numeroLecturas+1)^(0+128),w
  6546  1655  1283               	bcf	3,5	;RP0=0, select bank0
  6547  1656  1303               	bcf	3,6	;RP1=0, select bank0
  6548  1657  00A7               	movwf	___awdiv@divisor+1
  6549  1658  1683               	bsf	3,5	;RP0=1, select bank1
  6550  1659  1303               	bcf	3,6	;RP1=0, select bank1
  6551  165A  0832               	movf	_numeroLecturas^(0+128),w
  6552  165B  1283               	bcf	3,5	;RP0=0, select bank0
  6553  165C  1303               	bcf	3,6	;RP1=0, select bank0
  6554  165D  00A6               	movwf	___awdiv@divisor
  6555  165E  1683               	bsf	3,5	;RP0=1, select bank1
  6556  165F  1303               	bcf	3,6	;RP1=0, select bank1
  6557  1660  0835               	movf	(_sumaLecturas+1)^(0+128),w
  6558  1661  1283               	bcf	3,5	;RP0=0, select bank0
  6559  1662  1303               	bcf	3,6	;RP1=0, select bank0
  6560  1663  00A9               	movwf	___awdiv@dividend+1
  6561  1664  1683               	bsf	3,5	;RP0=1, select bank1
  6562  1665  1303               	bcf	3,6	;RP1=0, select bank1
  6563  1666  0834               	movf	_sumaLecturas^(0+128),w
  6564  1667  1283               	bcf	3,5	;RP0=0, select bank0
  6565  1668  1303               	bcf	3,6	;RP1=0, select bank0
  6566  1669  00A8               	movwf	___awdiv@dividend
  6567  166A  160A  118A  2797  160A  118A  	fcall	___awdiv
  6568  166F  1283               	bcf	3,5	;RP0=0, select bank0
  6569  1670  1303               	bcf	3,6	;RP1=0, select bank0
  6570  1671  0827               	movf	?___awdiv+1,w
  6571  1672  00FD               	movwf	_tempObjetivo+1
  6572  1673  0826               	movf	?___awdiv,w
  6573  1674  00FC               	movwf	_tempObjetivo
  6574  1675                     l2118:
  6575                           
  6576                           ;sensores.c: 191: sumaLecturas = 0;
  6577  1675  1683               	bsf	3,5	;RP0=1, select bank1
  6578  1676  1303               	bcf	3,6	;RP1=0, select bank1
  6579  1677  01B4               	clrf	_sumaLecturas^(0+128)
  6580  1678  01B5               	clrf	(_sumaLecturas+1)^(0+128)
  6581  1679                     l2120:
  6582                           
  6583                           ;sensores.c: 192: numeroLecturas = 0;
  6584  1679  01B2               	clrf	_numeroLecturas^(0+128)
  6585  167A  01B3               	clrf	(_numeroLecturas+1)^(0+128)
  6586  167B                     l2122:
  6587                           
  6588                           ;sensores.c: 193: };sensores.c: 194: return tempObjetivo;
  6589  167B  087D               	movf	_tempObjetivo+1,w
  6590  167C  1283               	bcf	3,5	;RP0=0, select bank0
  6591  167D  1303               	bcf	3,6	;RP1=0, select bank0
  6592  167E  00B0               	movwf	?_get_tempObjetivo+1
  6593  167F  087C               	movf	_tempObjetivo,w
  6594  1680  00AF               	movwf	?_get_tempObjetivo
  6595  1681                     l85:
  6596  1681  0008               	return
  6597  1682                     __end_of_get_tempObjetivo:
  6598                           
  6599                           	psect	text30
  6600  1797                     __ptext30:	
  6601 ;; *************** function ___awdiv *****************
  6602 ;; Defined at:
  6603 ;;		line 5 in file "C:\Program Files\Microchip\xc8\v2.30\pic\sources\c90\common\awdiv.c"
  6604 ;; Parameters:    Size  Location     Type
  6605 ;;  divisor         2    6[BANK0 ] int 
  6606 ;;  dividend        2    8[BANK0 ] int 
  6607 ;; Auto vars:     Size  Location     Type
  6608 ;;  quotient        2   13[BANK0 ] int 
  6609 ;;  sign            1   12[BANK0 ] unsigned char 
  6610 ;;  counter         1   11[BANK0 ] unsigned char 
  6611 ;; Return value:  Size  Location     Type
  6612 ;;                  2    6[BANK0 ] int 
  6613 ;; Registers used:
  6614 ;;		wreg, status,2, status,0
  6615 ;; Tracked objects:
  6616 ;;		On entry : 0/0
  6617 ;;		On exit  : 0/0
  6618 ;;		Unchanged: 0/0
  6619 ;; Data sizes:     COMMON   BANK0   BANK1   BANK3   BANK2
  6620 ;;      Params:         0       4       0       0       0
  6621 ;;      Locals:         0       4       0       0       0
  6622 ;;      Temps:          0       1       0       0       0
  6623 ;;      Totals:         0       9       0       0       0
  6624 ;;Total ram usage:        9 bytes
  6625 ;; Hardware stack levels used:    1
  6626 ;; Hardware stack levels required when called:    2
  6627 ;; This function calls:
  6628 ;;		Nothing
  6629 ;; This function is called by:
  6630 ;;		_get_tempObjetivo
  6631 ;;		_set_Ventilador
  6632 ;; This function uses a non-reentrant model
  6633 ;;
  6634                           
  6635                           
  6636                           ;psect for function ___awdiv
  6637  1797                     ___awdiv:
  6638  1797                     l1844:	
  6639                           ;incstack = 0
  6640                           ; Regs used in ___awdiv: [wreg+status,2+status,0]
  6641                           
  6642  1797  1283               	bcf	3,5	;RP0=0, select bank0
  6643  1798  1303               	bcf	3,6	;RP1=0, select bank0
  6644  1799  01AC               	clrf	___awdiv@sign
  6645  179A                     l1846:
  6646  179A  1FA7               	btfss	___awdiv@divisor+1,7
  6647  179B  2F9D               	goto	u1631
  6648  179C  2F9E               	goto	u1630
  6649  179D                     u1631:
  6650  179D  2FA5               	goto	l1852
  6651  179E                     u1630:
  6652  179E                     l1848:
  6653  179E  09A6               	comf	___awdiv@divisor,f
  6654  179F  09A7               	comf	___awdiv@divisor+1,f
  6655  17A0  0AA6               	incf	___awdiv@divisor,f
  6656  17A1  1903               	skipnz
  6657  17A2  0AA7               	incf	___awdiv@divisor+1,f
  6658  17A3                     l1850:
  6659  17A3  01AC               	clrf	___awdiv@sign
  6660  17A4  0AAC               	incf	___awdiv@sign,f
  6661  17A5                     l1852:
  6662  17A5  1FA9               	btfss	___awdiv@dividend+1,7
  6663  17A6  2FA8               	goto	u1641
  6664  17A7  2FA9               	goto	u1640
  6665  17A8                     u1641:
  6666  17A8  2FB2               	goto	l1858
  6667  17A9                     u1640:
  6668  17A9                     l1854:
  6669  17A9  09A8               	comf	___awdiv@dividend,f
  6670  17AA  09A9               	comf	___awdiv@dividend+1,f
  6671  17AB  0AA8               	incf	___awdiv@dividend,f
  6672  17AC  1903               	skipnz
  6673  17AD  0AA9               	incf	___awdiv@dividend+1,f
  6674  17AE                     l1856:
  6675  17AE  3001               	movlw	1
  6676  17AF  00AA               	movwf	??___awdiv
  6677  17B0  082A               	movf	??___awdiv,w
  6678  17B1  06AC               	xorwf	___awdiv@sign,f
  6679  17B2                     l1858:
  6680  17B2  01AD               	clrf	___awdiv@quotient
  6681  17B3  01AE               	clrf	___awdiv@quotient+1
  6682  17B4                     l1860:
  6683  17B4  0826               	movf	___awdiv@divisor,w
  6684  17B5  0427               	iorwf	___awdiv@divisor+1,w
  6685  17B6  1903               	btfsc	3,2
  6686  17B7  2FB9               	goto	u1651
  6687  17B8  2FBA               	goto	u1650
  6688  17B9                     u1651:
  6689  17B9  2FF1               	goto	l1880
  6690  17BA                     u1650:
  6691  17BA                     l1862:
  6692  17BA  01AB               	clrf	___awdiv@counter
  6693  17BB  0AAB               	incf	___awdiv@counter,f
  6694  17BC  2FC8               	goto	l1868
  6695  17BD                     l1864:
  6696  17BD  3001               	movlw	1
  6697  17BE                     u1665:
  6698  17BE  1003               	clrc
  6699  17BF  0DA6               	rlf	___awdiv@divisor,f
  6700  17C0  0DA7               	rlf	___awdiv@divisor+1,f
  6701  17C1  3EFF               	addlw	-1
  6702  17C2  1D03               	skipz
  6703  17C3  2FBE               	goto	u1665
  6704  17C4                     l1866:
  6705  17C4  3001               	movlw	1
  6706  17C5  00AA               	movwf	??___awdiv
  6707  17C6  082A               	movf	??___awdiv,w
  6708  17C7  07AB               	addwf	___awdiv@counter,f
  6709  17C8                     l1868:
  6710  17C8  1FA7               	btfss	___awdiv@divisor+1,7
  6711  17C9  2FCB               	goto	u1671
  6712  17CA  2FCC               	goto	u1670
  6713  17CB                     u1671:
  6714  17CB  2FBD               	goto	l1864
  6715  17CC                     u1670:
  6716  17CC                     l1870:
  6717  17CC  3001               	movlw	1
  6718  17CD                     u1685:
  6719  17CD  1003               	clrc
  6720  17CE  0DAD               	rlf	___awdiv@quotient,f
  6721  17CF  0DAE               	rlf	___awdiv@quotient+1,f
  6722  17D0  3EFF               	addlw	-1
  6723  17D1  1D03               	skipz
  6724  17D2  2FCD               	goto	u1685
  6725  17D3  0827               	movf	___awdiv@divisor+1,w
  6726  17D4  0229               	subwf	___awdiv@dividend+1,w
  6727  17D5  1D03               	skipz
  6728  17D6  2FD9               	goto	u1695
  6729  17D7  0826               	movf	___awdiv@divisor,w
  6730  17D8  0228               	subwf	___awdiv@dividend,w
  6731  17D9                     u1695:
  6732  17D9  1C03               	skipc
  6733  17DA  2FDC               	goto	u1691
  6734  17DB  2FDD               	goto	u1690
  6735  17DC                     u1691:
  6736  17DC  2FE4               	goto	l1876
  6737  17DD                     u1690:
  6738  17DD                     l1872:
  6739  17DD  0826               	movf	___awdiv@divisor,w
  6740  17DE  02A8               	subwf	___awdiv@dividend,f
  6741  17DF  0827               	movf	___awdiv@divisor+1,w
  6742  17E0  1C03               	skipc
  6743  17E1  03A9               	decf	___awdiv@dividend+1,f
  6744  17E2  02A9               	subwf	___awdiv@dividend+1,f
  6745  17E3                     l1874:
  6746  17E3  142D               	bsf	___awdiv@quotient,0
  6747  17E4                     l1876:
  6748  17E4  3001               	movlw	1
  6749  17E5                     u1705:
  6750  17E5  1003               	clrc
  6751  17E6  0CA7               	rrf	___awdiv@divisor+1,f
  6752  17E7  0CA6               	rrf	___awdiv@divisor,f
  6753  17E8  3EFF               	addlw	-1
  6754  17E9  1D03               	skipz
  6755  17EA  2FE5               	goto	u1705
  6756  17EB                     l1878:
  6757  17EB  3001               	movlw	1
  6758  17EC  02AB               	subwf	___awdiv@counter,f
  6759  17ED  1D03               	btfss	3,2
  6760  17EE  2FF0               	goto	u1711
  6761  17EF  2FF1               	goto	u1710
  6762  17F0                     u1711:
  6763  17F0  2FCC               	goto	l1870
  6764  17F1                     u1710:
  6765  17F1                     l1880:
  6766  17F1  082C               	movf	___awdiv@sign,w
  6767  17F2  1903               	btfsc	3,2
  6768  17F3  2FF5               	goto	u1721
  6769  17F4  2FF6               	goto	u1720
  6770  17F5                     u1721:
  6771  17F5  2FFB               	goto	l1884
  6772  17F6                     u1720:
  6773  17F6                     l1882:
  6774  17F6  09AD               	comf	___awdiv@quotient,f
  6775  17F7  09AE               	comf	___awdiv@quotient+1,f
  6776  17F8  0AAD               	incf	___awdiv@quotient,f
  6777  17F9  1903               	skipnz
  6778  17FA  0AAE               	incf	___awdiv@quotient+1,f
  6779  17FB                     l1884:
  6780  17FB  082E               	movf	___awdiv@quotient+1,w
  6781  17FC  00A7               	movwf	?___awdiv+1
  6782  17FD  082D               	movf	___awdiv@quotient,w
  6783  17FE  00A6               	movwf	?___awdiv
  6784  17FF                     l650:
  6785  17FF  0008               	return
  6786  1800                     __end_of___awdiv:
  6787                           
  6788                           	psect	text31
  6789  154C                     __ptext31:	
  6790 ;; *************** function _get_lastPotenciometro *****************
  6791 ;; Defined at:
  6792 ;;		line 197 in file "sensores.c"
  6793 ;; Parameters:    Size  Location     Type
  6794 ;;		None
  6795 ;; Auto vars:     Size  Location     Type
  6796 ;;		None
  6797 ;; Return value:  Size  Location     Type
  6798 ;;                  3    0[BANK0 ] float 
  6799 ;; Registers used:
  6800 ;;		wreg
  6801 ;; Tracked objects:
  6802 ;;		On entry : 0/0
  6803 ;;		On exit  : 0/0
  6804 ;;		Unchanged: 0/0
  6805 ;; Data sizes:     COMMON   BANK0   BANK1   BANK3   BANK2
  6806 ;;      Params:         0       3       0       0       0
  6807 ;;      Locals:         0       0       0       0       0
  6808 ;;      Temps:          0       0       0       0       0
  6809 ;;      Totals:         0       3       0       0       0
  6810 ;;Total ram usage:        3 bytes
  6811 ;; Hardware stack levels used:    1
  6812 ;; Hardware stack levels required when called:    2
  6813 ;; This function calls:
  6814 ;;		Nothing
  6815 ;; This function is called by:
  6816 ;;		_logica_Actuadores
  6817 ;; This function uses a non-reentrant model
  6818 ;;
  6819                           
  6820                           
  6821                           ;psect for function _get_lastPotenciometro
  6822  154C                     _get_lastPotenciometro:
  6823  154C                     l2126:	
  6824                           ;incstack = 0
  6825                           ; Regs used in _get_lastPotenciometro: [wreg]
  6826                           
  6827                           
  6828                           ;sensores.c: 198: return lastPotenciometro;
  6829  154C  1683               	bsf	3,5	;RP0=1, select bank1
  6830  154D  1303               	bcf	3,6	;RP1=0, select bank1
  6831  154E  0829               	movf	_lastPotenciometro^(0+128),w
  6832  154F  1283               	bcf	3,5	;RP0=0, select bank0
  6833  1550  1303               	bcf	3,6	;RP1=0, select bank0
  6834  1551  00A0               	movwf	?_get_lastPotenciometro
  6835  1552  1683               	bsf	3,5	;RP0=1, select bank1
  6836  1553  1303               	bcf	3,6	;RP1=0, select bank1
  6837  1554  082A               	movf	(_lastPotenciometro+1)^(0+128),w
  6838  1555  1283               	bcf	3,5	;RP0=0, select bank0
  6839  1556  1303               	bcf	3,6	;RP1=0, select bank0
  6840  1557  00A1               	movwf	?_get_lastPotenciometro+1
  6841  1558  1683               	bsf	3,5	;RP0=1, select bank1
  6842  1559  1303               	bcf	3,6	;RP1=0, select bank1
  6843  155A  082B               	movf	(_lastPotenciometro+2)^(0+128),w
  6844  155B  1283               	bcf	3,5	;RP0=0, select bank0
  6845  155C  1303               	bcf	3,6	;RP1=0, select bank0
  6846  155D  00A2               	movwf	?_get_lastPotenciometro+2
  6847  155E                     l88:
  6848  155E  0008               	return
  6849  155F                     __end_of_get_lastPotenciometro:
  6850                           
  6851                           	psect	text32
  6852  0922                     __ptext32:	
  6853 ;; *************** function ___fttol *****************
  6854 ;; Defined at:
  6855 ;;		line 44 in file "C:\Program Files\Microchip\xc8\v2.30\pic\sources\c90\common\fttol.c"
  6856 ;; Parameters:    Size  Location     Type
  6857 ;;  f1              3   59[BANK0 ] float 
  6858 ;; Auto vars:     Size  Location     Type
  6859 ;;  lval            4   68[BANK0 ] unsigned long 
  6860 ;;  exp1            1   72[BANK0 ] unsigned char 
  6861 ;;  sign1           1   67[BANK0 ] unsigned char 
  6862 ;; Return value:  Size  Location     Type
  6863 ;;                  4   59[BANK0 ] long 
  6864 ;; Registers used:
  6865 ;;		wreg, status,2, status,0
  6866 ;; Tracked objects:
  6867 ;;		On entry : 0/0
  6868 ;;		On exit  : 0/0
  6869 ;;		Unchanged: 0/0
  6870 ;; Data sizes:     COMMON   BANK0   BANK1   BANK3   BANK2
  6871 ;;      Params:         0       4       0       0       0
  6872 ;;      Locals:         0       6       0       0       0
  6873 ;;      Temps:          0       4       0       0       0
  6874 ;;      Totals:         0      14       0       0       0
  6875 ;;Total ram usage:       14 bytes
  6876 ;; Hardware stack levels used:    1
  6877 ;; Hardware stack levels required when called:    2
  6878 ;; This function calls:
  6879 ;;		Nothing
  6880 ;; This function is called by:
  6881 ;;		_read_temperatura_interior
  6882 ;;		_read_temperatura_exterior
  6883 ;;		_read_humedad
  6884 ;;		_read_intensidad_lumninosa
  6885 ;;		_read_potenciometro
  6886 ;;		_logica_Actuadores
  6887 ;;		_get_velocidad_ventilador
  6888 ;; This function uses a non-reentrant model
  6889 ;;
  6890                           
  6891                           
  6892                           ;psect for function ___fttol
  6893  0922                     ___fttol:
  6894  0922                     l1958:	
  6895                           ;incstack = 0
  6896                           ; Regs used in ___fttol: [wreg+status,2+status,0]
  6897                           
  6898  0922  1283               	bcf	3,5	;RP0=0, select bank0
  6899  0923  1303               	bcf	3,6	;RP1=0, select bank0
  6900  0924  085B               	movf	___fttol@f1,w
  6901  0925  00DF               	movwf	??___fttol
  6902  0926  085C               	movf	___fttol@f1+1,w
  6903  0927  00E0               	movwf	??___fttol+1
  6904  0928  085D               	movf	___fttol@f1+2,w
  6905  0929  00E1               	movwf	??___fttol+2
  6906  092A  1003               	clrc
  6907  092B  0D60               	rlf	??___fttol+1,w
  6908  092C  0D61               	rlf	??___fttol+2,w
  6909  092D  00E2               	movwf	??___fttol+3
  6910  092E  0862               	movf	??___fttol+3,w
  6911  092F  00E8               	movwf	___fttol@exp1
  6912  0930  0868               	movf	___fttol@exp1,w
  6913  0931  1D03               	btfss	3,2
  6914  0932  2934               	goto	u1971
  6915  0933  2935               	goto	u1970
  6916  0934                     u1971:
  6917  0934  293E               	goto	l1964
  6918  0935                     u1970:
  6919  0935                     l1960:
  6920  0935  3000               	movlw	0
  6921  0936  00DE               	movwf	?___fttol+3
  6922  0937  3000               	movlw	0
  6923  0938  00DD               	movwf	?___fttol+2
  6924  0939  3000               	movlw	0
  6925  093A  00DC               	movwf	?___fttol+1
  6926  093B  3000               	movlw	0
  6927  093C  00DB               	movwf	?___fttol
  6928  093D  29AD               	goto	l763
  6929  093E                     l1964:
  6930  093E  085B               	movf	___fttol@f1,w
  6931  093F  00DF               	movwf	??___fttol
  6932  0940  085C               	movf	___fttol@f1+1,w
  6933  0941  00E0               	movwf	??___fttol+1
  6934  0942  085D               	movf	___fttol@f1+2,w
  6935  0943  00E1               	movwf	??___fttol+2
  6936  0944  3017               	movlw	23
  6937  0945                     u1985:
  6938  0945  1003               	clrc
  6939  0946  0CE1               	rrf	??___fttol+2,f
  6940  0947  0CE0               	rrf	??___fttol+1,f
  6941  0948  0CDF               	rrf	??___fttol,f
  6942  0949                     u1980:
  6943  0949  3EFF               	addlw	-1
  6944  094A  1D03               	skipz
  6945  094B  2945               	goto	u1985
  6946  094C  085F               	movf	??___fttol,w
  6947  094D  00E2               	movwf	??___fttol+3
  6948  094E  0862               	movf	??___fttol+3,w
  6949  094F  00E3               	movwf	___fttol@sign1
  6950  0950                     l1966:
  6951  0950  17DC               	bsf	___fttol@f1+1,7
  6952  0951                     l1968:
  6953  0951  30FF               	movlw	255
  6954  0952  05DB               	andwf	___fttol@f1,f
  6955  0953  30FF               	movlw	255
  6956  0954  05DC               	andwf	___fttol@f1+1,f
  6957  0955  3000               	movlw	0
  6958  0956  05DD               	andwf	___fttol@f1+2,f
  6959  0957                     l1970:
  6960  0957  085B               	movf	___fttol@f1,w
  6961  0958  00E4               	movwf	___fttol@lval
  6962  0959  085C               	movf	___fttol@f1+1,w
  6963  095A  00E5               	movwf	___fttol@lval+1
  6964  095B  085D               	movf	___fttol@f1+2,w
  6965  095C  00E6               	movwf	___fttol@lval+2
  6966  095D  01E7               	clrf	___fttol@lval+3
  6967  095E                     l1972:
  6968  095E  308E               	movlw	142
  6969  095F  02E8               	subwf	___fttol@exp1,f
  6970  0960                     l1974:
  6971  0960  1FE8               	btfss	___fttol@exp1,7
  6972  0961  2963               	goto	u1991
  6973  0962  2964               	goto	u1990
  6974  0963                     u1991:
  6975  0963  297E               	goto	l1984
  6976  0964                     u1990:
  6977  0964                     l1976:
  6978  0964  0868               	movf	___fttol@exp1,w
  6979  0965  3A80               	xorlw	128
  6980  0966  3E8F               	addlw	143
  6981  0967  1803               	skipnc
  6982  0968  296A               	goto	u2001
  6983  0969  296B               	goto	u2000
  6984  096A                     u2001:
  6985  096A  296C               	goto	l1982
  6986  096B                     u2000:
  6987  096B  2935               	goto	l1960
  6988  096C                     l1982:
  6989  096C  3001               	movlw	1
  6990  096D                     u2015:
  6991  096D  1003               	clrc
  6992  096E  0CE7               	rrf	___fttol@lval+3,f
  6993  096F  0CE6               	rrf	___fttol@lval+2,f
  6994  0970  0CE5               	rrf	___fttol@lval+1,f
  6995  0971  0CE4               	rrf	___fttol@lval,f
  6996  0972  3EFF               	addlw	-1
  6997  0973  1D03               	skipz
  6998  0974  296D               	goto	u2015
  6999  0975  3001               	movlw	1
  7000  0976  00DF               	movwf	??___fttol
  7001  0977  085F               	movf	??___fttol,w
  7002  0978  07E8               	addwf	___fttol@exp1,f
  7003  0979  1D03               	btfss	3,2
  7004  097A  297C               	goto	u2021
  7005  097B  297D               	goto	u2020
  7006  097C                     u2021:
  7007  097C  296C               	goto	l1982
  7008  097D                     u2020:
  7009  097D  2995               	goto	l1992
  7010  097E                     l1984:
  7011  097E  3018               	movlw	24
  7012  097F  0268               	subwf	___fttol@exp1,w
  7013  0980  1C03               	skipc
  7014  0981  2983               	goto	u2031
  7015  0982  2984               	goto	u2030
  7016  0983                     u2031:
  7017  0983  2990               	goto	l770
  7018  0984                     u2030:
  7019  0984  2935               	goto	l1960
  7020  0985                     l1990:
  7021  0985  3001               	movlw	1
  7022  0986  00DF               	movwf	??___fttol
  7023  0987                     u2045:
  7024  0987  1003               	clrc
  7025  0988  0DE4               	rlf	___fttol@lval,f
  7026  0989  0DE5               	rlf	___fttol@lval+1,f
  7027  098A  0DE6               	rlf	___fttol@lval+2,f
  7028  098B  0DE7               	rlf	___fttol@lval+3,f
  7029  098C  0BDF               	decfsz	??___fttol,f
  7030  098D  2987               	goto	u2045
  7031  098E  3001               	movlw	1
  7032  098F  02E8               	subwf	___fttol@exp1,f
  7033  0990                     l770:
  7034  0990  0868               	movf	___fttol@exp1,w
  7035  0991  1D03               	btfss	3,2
  7036  0992  2994               	goto	u2051
  7037  0993  2995               	goto	u2050
  7038  0994                     u2051:
  7039  0994  2985               	goto	l1990
  7040  0995                     u2050:
  7041  0995                     l1992:
  7042  0995  0863               	movf	___fttol@sign1,w
  7043  0996  1903               	btfsc	3,2
  7044  0997  2999               	goto	u2061
  7045  0998  299A               	goto	u2060
  7046  0999                     u2061:
  7047  0999  29A5               	goto	l1996
  7048  099A                     u2060:
  7049  099A                     l1994:
  7050  099A  09E4               	comf	___fttol@lval,f
  7051  099B  09E5               	comf	___fttol@lval+1,f
  7052  099C  09E6               	comf	___fttol@lval+2,f
  7053  099D  09E7               	comf	___fttol@lval+3,f
  7054  099E  0AE4               	incf	___fttol@lval,f
  7055  099F  1903               	skipnz
  7056  09A0  0AE5               	incf	___fttol@lval+1,f
  7057  09A1  1903               	skipnz
  7058  09A2  0AE6               	incf	___fttol@lval+2,f
  7059  09A3  1903               	skipnz
  7060  09A4  0AE7               	incf	___fttol@lval+3,f
  7061  09A5                     l1996:
  7062  09A5  0867               	movf	___fttol@lval+3,w
  7063  09A6  00DE               	movwf	?___fttol+3
  7064  09A7  0866               	movf	___fttol@lval+2,w
  7065  09A8  00DD               	movwf	?___fttol+2
  7066  09A9  0865               	movf	___fttol@lval+1,w
  7067  09AA  00DC               	movwf	?___fttol+1
  7068  09AB  0864               	movf	___fttol@lval,w
  7069  09AC  00DB               	movwf	?___fttol
  7070  09AD                     l763:
  7071  09AD  0008               	return
  7072  09AE                     __end_of___fttol:
  7073                           
  7074                           	psect	text33
  7075  0B1D                     __ptext33:	
  7076 ;; *************** function ___ftmul *****************
  7077 ;; Defined at:
  7078 ;;		line 62 in file "C:\Program Files\Microchip\xc8\v2.30\pic\sources\c90\common\ftmul.c"
  7079 ;; Parameters:    Size  Location     Type
  7080 ;;  f1              3   43[BANK0 ] float 
  7081 ;;  f2              3   46[BANK0 ] float 
  7082 ;; Auto vars:     Size  Location     Type
  7083 ;;  f3_as_produc    3   54[BANK0 ] unsigned um
  7084 ;;  sign            1   58[BANK0 ] unsigned char 
  7085 ;;  cntr            1   57[BANK0 ] unsigned char 
  7086 ;;  exp             1   53[BANK0 ] unsigned char 
  7087 ;; Return value:  Size  Location     Type
  7088 ;;                  3   43[BANK0 ] float 
  7089 ;; Registers used:
  7090 ;;		wreg, status,2, status,0, pclath, cstack
  7091 ;; Tracked objects:
  7092 ;;		On entry : 0/0
  7093 ;;		On exit  : 0/0
  7094 ;;		Unchanged: 0/0
  7095 ;; Data sizes:     COMMON   BANK0   BANK1   BANK3   BANK2
  7096 ;;      Params:         0       6       0       0       0
  7097 ;;      Locals:         0       6       0       0       0
  7098 ;;      Temps:          0       4       0       0       0
  7099 ;;      Totals:         0      16       0       0       0
  7100 ;;Total ram usage:       16 bytes
  7101 ;; Hardware stack levels used:    1
  7102 ;; Hardware stack levels required when called:    3
  7103 ;; This function calls:
  7104 ;;		___ftpack
  7105 ;; This function is called by:
  7106 ;;		_read_temperatura_interior
  7107 ;;		_read_potenciometro
  7108 ;;		_logica_Actuadores
  7109 ;; This function uses a non-reentrant model
  7110 ;;
  7111                           
  7112                           
  7113                           ;psect for function ___ftmul
  7114  0B1D                     ___ftmul:
  7115  0B1D                     l2234:	
  7116                           ;incstack = 0
  7117                           ; Regs used in ___ftmul: [wreg+status,2+status,0+pclath+cstack]
  7118                           
  7119  0B1D  1283               	bcf	3,5	;RP0=0, select bank0
  7120  0B1E  1303               	bcf	3,6	;RP1=0, select bank0
  7121  0B1F  084B               	movf	___ftmul@f1,w
  7122  0B20  00D1               	movwf	??___ftmul
  7123  0B21  084C               	movf	___ftmul@f1+1,w
  7124  0B22  00D2               	movwf	??___ftmul+1
  7125  0B23  084D               	movf	___ftmul@f1+2,w
  7126  0B24  00D3               	movwf	??___ftmul+2
  7127  0B25  1003               	clrc
  7128  0B26  0D52               	rlf	??___ftmul+1,w
  7129  0B27  0D53               	rlf	??___ftmul+2,w
  7130  0B28  00D4               	movwf	??___ftmul+3
  7131  0B29  0854               	movf	??___ftmul+3,w
  7132  0B2A  00D5               	movwf	___ftmul@exp
  7133  0B2B  0855               	movf	___ftmul@exp,w
  7134  0B2C  1D03               	btfss	3,2
  7135  0B2D  2B2F               	goto	u2421
  7136  0B2E  2B30               	goto	u2420
  7137  0B2F                     u2421:
  7138  0B2F  2B37               	goto	l2240
  7139  0B30                     u2420:
  7140  0B30                     l2236:
  7141  0B30  3000               	movlw	0
  7142  0B31  00CB               	movwf	?___ftmul
  7143  0B32  3000               	movlw	0
  7144  0B33  00CC               	movwf	?___ftmul+1
  7145  0B34  3000               	movlw	0
  7146  0B35  00CD               	movwf	?___ftmul+2
  7147  0B36  2C01               	goto	l742
  7148  0B37                     l2240:
  7149  0B37  084E               	movf	___ftmul@f2,w
  7150  0B38  00D1               	movwf	??___ftmul
  7151  0B39  084F               	movf	___ftmul@f2+1,w
  7152  0B3A  00D2               	movwf	??___ftmul+1
  7153  0B3B  0850               	movf	___ftmul@f2+2,w
  7154  0B3C  00D3               	movwf	??___ftmul+2
  7155  0B3D  1003               	clrc
  7156  0B3E  0D52               	rlf	??___ftmul+1,w
  7157  0B3F  0D53               	rlf	??___ftmul+2,w
  7158  0B40  00D4               	movwf	??___ftmul+3
  7159  0B41  0854               	movf	??___ftmul+3,w
  7160  0B42  00DA               	movwf	___ftmul@sign
  7161  0B43  085A               	movf	___ftmul@sign,w
  7162  0B44  1D03               	btfss	3,2
  7163  0B45  2B47               	goto	u2431
  7164  0B46  2B48               	goto	u2430
  7165  0B47                     u2431:
  7166  0B47  2B4F               	goto	l2246
  7167  0B48                     u2430:
  7168  0B48                     l2242:
  7169  0B48  3000               	movlw	0
  7170  0B49  00CB               	movwf	?___ftmul
  7171  0B4A  3000               	movlw	0
  7172  0B4B  00CC               	movwf	?___ftmul+1
  7173  0B4C  3000               	movlw	0
  7174  0B4D  00CD               	movwf	?___ftmul+2
  7175  0B4E  2C01               	goto	l742
  7176  0B4F                     l2246:
  7177  0B4F  085A               	movf	___ftmul@sign,w
  7178  0B50  3E7B               	addlw	123
  7179  0B51  00D1               	movwf	??___ftmul
  7180  0B52  0851               	movf	??___ftmul,w
  7181  0B53  07D5               	addwf	___ftmul@exp,f
  7182  0B54  084B               	movf	___ftmul@f1,w
  7183  0B55  00D1               	movwf	??___ftmul
  7184  0B56  084C               	movf	___ftmul@f1+1,w
  7185  0B57  00D2               	movwf	??___ftmul+1
  7186  0B58  084D               	movf	___ftmul@f1+2,w
  7187  0B59  00D3               	movwf	??___ftmul+2
  7188  0B5A  3010               	movlw	16
  7189  0B5B                     u2445:
  7190  0B5B  1003               	clrc
  7191  0B5C  0CD3               	rrf	??___ftmul+2,f
  7192  0B5D  0CD2               	rrf	??___ftmul+1,f
  7193  0B5E  0CD1               	rrf	??___ftmul,f
  7194  0B5F                     u2440:
  7195  0B5F  3EFF               	addlw	-1
  7196  0B60  1D03               	skipz
  7197  0B61  2B5B               	goto	u2445
  7198  0B62  0851               	movf	??___ftmul,w
  7199  0B63  00D4               	movwf	??___ftmul+3
  7200  0B64  0854               	movf	??___ftmul+3,w
  7201  0B65  00DA               	movwf	___ftmul@sign
  7202  0B66  084E               	movf	___ftmul@f2,w
  7203  0B67  00D1               	movwf	??___ftmul
  7204  0B68  084F               	movf	___ftmul@f2+1,w
  7205  0B69  00D2               	movwf	??___ftmul+1
  7206  0B6A  0850               	movf	___ftmul@f2+2,w
  7207  0B6B  00D3               	movwf	??___ftmul+2
  7208  0B6C  3010               	movlw	16
  7209  0B6D                     u2455:
  7210  0B6D  1003               	clrc
  7211  0B6E  0CD3               	rrf	??___ftmul+2,f
  7212  0B6F  0CD2               	rrf	??___ftmul+1,f
  7213  0B70  0CD1               	rrf	??___ftmul,f
  7214  0B71                     u2450:
  7215  0B71  3EFF               	addlw	-1
  7216  0B72  1D03               	skipz
  7217  0B73  2B6D               	goto	u2455
  7218  0B74  0851               	movf	??___ftmul,w
  7219  0B75  00D4               	movwf	??___ftmul+3
  7220  0B76  0854               	movf	??___ftmul+3,w
  7221  0B77  06DA               	xorwf	___ftmul@sign,f
  7222  0B78  3080               	movlw	128
  7223  0B79  00D1               	movwf	??___ftmul
  7224  0B7A  0851               	movf	??___ftmul,w
  7225  0B7B  05DA               	andwf	___ftmul@sign,f
  7226  0B7C                     l2248:
  7227  0B7C  17CC               	bsf	___ftmul@f1+1,7
  7228  0B7D                     l2250:
  7229  0B7D  17CF               	bsf	___ftmul@f2+1,7
  7230  0B7E                     l2252:
  7231  0B7E  30FF               	movlw	255
  7232  0B7F  05CE               	andwf	___ftmul@f2,f
  7233  0B80  30FF               	movlw	255
  7234  0B81  05CF               	andwf	___ftmul@f2+1,f
  7235  0B82  3000               	movlw	0
  7236  0B83  05D0               	andwf	___ftmul@f2+2,f
  7237  0B84                     l2254:
  7238  0B84  3000               	movlw	0
  7239  0B85  00D6               	movwf	___ftmul@f3_as_product
  7240  0B86  3000               	movlw	0
  7241  0B87  00D7               	movwf	___ftmul@f3_as_product+1
  7242  0B88  3000               	movlw	0
  7243  0B89  00D8               	movwf	___ftmul@f3_as_product+2
  7244  0B8A                     l2256:
  7245  0B8A  3007               	movlw	7
  7246  0B8B  00D1               	movwf	??___ftmul
  7247  0B8C  0851               	movf	??___ftmul,w
  7248  0B8D  00D9               	movwf	___ftmul@cntr
  7249  0B8E                     l2258:
  7250  0B8E  1C4B               	btfss	___ftmul@f1,0
  7251  0B8F  2B91               	goto	u2461
  7252  0B90  2B92               	goto	u2460
  7253  0B91                     u2461:
  7254  0B91  2BA2               	goto	l2262
  7255  0B92                     u2460:
  7256  0B92                     l2260:
  7257  0B92  084E               	movf	___ftmul@f2,w
  7258  0B93  07D6               	addwf	___ftmul@f3_as_product,f
  7259  0B94  084F               	movf	___ftmul@f2+1,w
  7260  0B95  1103               	clrz
  7261  0B96  1803               	skipnc
  7262  0B97  0A4F               	incf	___ftmul@f2+1,w
  7263  0B98  1903               	skipnz
  7264  0B99  2B9B               	goto	u2471
  7265  0B9A  07D7               	addwf	___ftmul@f3_as_product+1,f
  7266  0B9B                     u2471:
  7267  0B9B  0850               	movf	___ftmul@f2+2,w
  7268  0B9C  1103               	clrz
  7269  0B9D  1803               	skipnc
  7270  0B9E  0A50               	incf	___ftmul@f2+2,w
  7271  0B9F  1903               	skipnz
  7272  0BA0  2BA2               	goto	u2472
  7273  0BA1  07D8               	addwf	___ftmul@f3_as_product+2,f
  7274  0BA2                     u2472:
  7275  0BA2                     l2262:
  7276  0BA2  3001               	movlw	1
  7277  0BA3                     u2485:
  7278  0BA3  1003               	clrc
  7279  0BA4  0CCD               	rrf	___ftmul@f1+2,f
  7280  0BA5  0CCC               	rrf	___ftmul@f1+1,f
  7281  0BA6  0CCB               	rrf	___ftmul@f1,f
  7282  0BA7  3EFF               	addlw	-1
  7283  0BA8  1D03               	skipz
  7284  0BA9  2BA3               	goto	u2485
  7285  0BAA                     l2264:
  7286  0BAA  3001               	movlw	1
  7287  0BAB                     u2495:
  7288  0BAB  1003               	clrc
  7289  0BAC  0DCE               	rlf	___ftmul@f2,f
  7290  0BAD  0DCF               	rlf	___ftmul@f2+1,f
  7291  0BAE  0DD0               	rlf	___ftmul@f2+2,f
  7292  0BAF  3EFF               	addlw	-1
  7293  0BB0  1D03               	skipz
  7294  0BB1  2BAB               	goto	u2495
  7295  0BB2                     l2266:
  7296  0BB2  3001               	movlw	1
  7297  0BB3  02D9               	subwf	___ftmul@cntr,f
  7298  0BB4  1D03               	btfss	3,2
  7299  0BB5  2BB7               	goto	u2501
  7300  0BB6  2BB8               	goto	u2500
  7301  0BB7                     u2501:
  7302  0BB7  2B8E               	goto	l2258
  7303  0BB8                     u2500:
  7304  0BB8                     l2268:
  7305  0BB8  3009               	movlw	9
  7306  0BB9  00D1               	movwf	??___ftmul
  7307  0BBA  0851               	movf	??___ftmul,w
  7308  0BBB  00D9               	movwf	___ftmul@cntr
  7309  0BBC                     l2270:
  7310  0BBC  1C4B               	btfss	___ftmul@f1,0
  7311  0BBD  2BBF               	goto	u2511
  7312  0BBE  2BC0               	goto	u2510
  7313  0BBF                     u2511:
  7314  0BBF  2BD0               	goto	l2274
  7315  0BC0                     u2510:
  7316  0BC0                     l2272:
  7317  0BC0  084E               	movf	___ftmul@f2,w
  7318  0BC1  07D6               	addwf	___ftmul@f3_as_product,f
  7319  0BC2  084F               	movf	___ftmul@f2+1,w
  7320  0BC3  1103               	clrz
  7321  0BC4  1803               	skipnc
  7322  0BC5  0A4F               	incf	___ftmul@f2+1,w
  7323  0BC6  1903               	skipnz
  7324  0BC7  2BC9               	goto	u2521
  7325  0BC8  07D7               	addwf	___ftmul@f3_as_product+1,f
  7326  0BC9                     u2521:
  7327  0BC9  0850               	movf	___ftmul@f2+2,w
  7328  0BCA  1103               	clrz
  7329  0BCB  1803               	skipnc
  7330  0BCC  0A50               	incf	___ftmul@f2+2,w
  7331  0BCD  1903               	skipnz
  7332  0BCE  2BD0               	goto	u2522
  7333  0BCF  07D8               	addwf	___ftmul@f3_as_product+2,f
  7334  0BD0                     u2522:
  7335  0BD0                     l2274:
  7336  0BD0  3001               	movlw	1
  7337  0BD1                     u2535:
  7338  0BD1  1003               	clrc
  7339  0BD2  0CCD               	rrf	___ftmul@f1+2,f
  7340  0BD3  0CCC               	rrf	___ftmul@f1+1,f
  7341  0BD4  0CCB               	rrf	___ftmul@f1,f
  7342  0BD5  3EFF               	addlw	-1
  7343  0BD6  1D03               	skipz
  7344  0BD7  2BD1               	goto	u2535
  7345  0BD8                     l2276:
  7346  0BD8  3001               	movlw	1
  7347  0BD9                     u2545:
  7348  0BD9  1003               	clrc
  7349  0BDA  0CD8               	rrf	___ftmul@f3_as_product+2,f
  7350  0BDB  0CD7               	rrf	___ftmul@f3_as_product+1,f
  7351  0BDC  0CD6               	rrf	___ftmul@f3_as_product,f
  7352  0BDD  3EFF               	addlw	-1
  7353  0BDE  1D03               	skipz
  7354  0BDF  2BD9               	goto	u2545
  7355  0BE0                     l2278:
  7356  0BE0  3001               	movlw	1
  7357  0BE1  02D9               	subwf	___ftmul@cntr,f
  7358  0BE2  1D03               	btfss	3,2
  7359  0BE3  2BE5               	goto	u2551
  7360  0BE4  2BE6               	goto	u2550
  7361  0BE5                     u2551:
  7362  0BE5  2BBC               	goto	l2270
  7363  0BE6                     u2550:
  7364  0BE6                     l2280:
  7365  0BE6  0856               	movf	___ftmul@f3_as_product,w
  7366  0BE7  00A0               	movwf	___ftpack@arg
  7367  0BE8  0857               	movf	___ftmul@f3_as_product+1,w
  7368  0BE9  00A1               	movwf	___ftpack@arg+1
  7369  0BEA  0858               	movf	___ftmul@f3_as_product+2,w
  7370  0BEB  00A2               	movwf	___ftpack@arg+2
  7371  0BEC  0855               	movf	___ftmul@exp,w
  7372  0BED  00D1               	movwf	??___ftmul
  7373  0BEE  0851               	movf	??___ftmul,w
  7374  0BEF  00A3               	movwf	___ftpack@exp
  7375  0BF0  085A               	movf	___ftmul@sign,w
  7376  0BF1  00D2               	movwf	??___ftmul+1
  7377  0BF2  0852               	movf	??___ftmul+1,w
  7378  0BF3  00A4               	movwf	___ftpack@sign
  7379  0BF4  120A  158A  20A4  120A  158A  	fcall	___ftpack
  7380  0BF9  1283               	bcf	3,5	;RP0=0, select bank0
  7381  0BFA  1303               	bcf	3,6	;RP1=0, select bank0
  7382  0BFB  0820               	movf	?___ftpack,w
  7383  0BFC  00CB               	movwf	?___ftmul
  7384  0BFD  0821               	movf	?___ftpack+1,w
  7385  0BFE  00CC               	movwf	?___ftmul+1
  7386  0BFF  0822               	movf	?___ftpack+2,w
  7387  0C00  00CD               	movwf	?___ftmul+2
  7388  0C01                     l742:
  7389  0C01  0008               	return
  7390  0C02                     __end_of___ftmul:
  7391                           
  7392                           	psect	text34
  7393  1682                     __ptext34:	
  7394 ;; *************** function ___ftge *****************
  7395 ;; Defined at:
  7396 ;;		line 4 in file "C:\Program Files\Microchip\xc8\v2.30\pic\sources\c90\common\ftge.c"
  7397 ;; Parameters:    Size  Location     Type
  7398 ;;  ff1             3   14[BANK0 ] float 
  7399 ;;  ff2             3   17[BANK0 ] float 
  7400 ;; Auto vars:     Size  Location     Type
  7401 ;;		None
  7402 ;; Return value:  Size  Location     Type
  7403 ;;		None               void
  7404 ;; Registers used:
  7405 ;;		wreg, status,2, status,0
  7406 ;; Tracked objects:
  7407 ;;		On entry : 0/0
  7408 ;;		On exit  : 0/0
  7409 ;;		Unchanged: 0/0
  7410 ;; Data sizes:     COMMON   BANK0   BANK1   BANK3   BANK2
  7411 ;;      Params:         0       6       0       0       0
  7412 ;;      Locals:         0       0       0       0       0
  7413 ;;      Temps:          0       0       0       0       0
  7414 ;;      Totals:         0       6       0       0       0
  7415 ;;Total ram usage:        6 bytes
  7416 ;; Hardware stack levels used:    1
  7417 ;; Hardware stack levels required when called:    2
  7418 ;; This function calls:
  7419 ;;		Nothing
  7420 ;; This function is called by:
  7421 ;;		_logica_Actuadores
  7422 ;; This function uses a non-reentrant model
  7423 ;;
  7424                           
  7425                           
  7426                           ;psect for function ___ftge
  7427  1682                     ___ftge:
  7428  1682                     l2214:	
  7429                           ;incstack = 0
  7430                           ; Regs used in ___ftge: [wreg+status,2+status,0]
  7431                           
  7432  1682  1283               	bcf	3,5	;RP0=0, select bank0
  7433  1683  1303               	bcf	3,6	;RP1=0, select bank0
  7434  1684  1FB0               	btfss	___ftge@ff1+2,7
  7435  1685  2E87               	goto	u2391
  7436  1686  2E88               	goto	u2390
  7437  1687                     u2391:
  7438  1687  2E95               	goto	l2218
  7439  1688                     u2390:
  7440  1688                     l2216:
  7441  1688  082E               	movf	___ftge@ff1,w
  7442  1689  3C00               	sublw	0
  7443  168A  00AE               	movwf	___ftge@ff1
  7444  168B  082F               	movf	___ftge@ff1+1,w
  7445  168C  1C03               	skipc
  7446  168D  0F2F               	incfsz	___ftge@ff1+1,w
  7447  168E  3C00               	sublw	0
  7448  168F  00AF               	movwf	___ftge@ff1+1
  7449  1690  0830               	movf	___ftge@ff1+2,w
  7450  1691  1C03               	skipc
  7451  1692  0F30               	incfsz	___ftge@ff1+2,w
  7452  1693  3C80               	sublw	128
  7453  1694  00B0               	movwf	___ftge@ff1+2
  7454  1695                     l2218:
  7455  1695  1FB3               	btfss	___ftge@ff2+2,7
  7456  1696  2E98               	goto	u2401
  7457  1697  2E99               	goto	u2400
  7458  1698                     u2401:
  7459  1698  2EA6               	goto	l2222
  7460  1699                     u2400:
  7461  1699                     l2220:
  7462  1699  0831               	movf	___ftge@ff2,w
  7463  169A  3C00               	sublw	0
  7464  169B  00B1               	movwf	___ftge@ff2
  7465  169C  0832               	movf	___ftge@ff2+1,w
  7466  169D  1C03               	skipc
  7467  169E  0F32               	incfsz	___ftge@ff2+1,w
  7468  169F  3C00               	sublw	0
  7469  16A0  00B2               	movwf	___ftge@ff2+1
  7470  16A1  0833               	movf	___ftge@ff2+2,w
  7471  16A2  1C03               	skipc
  7472  16A3  0F33               	incfsz	___ftge@ff2+2,w
  7473  16A4  3C80               	sublw	128
  7474  16A5  00B3               	movwf	___ftge@ff2+2
  7475  16A6                     l2222:
  7476  16A6  3080               	movlw	128
  7477  16A7  06B0               	xorwf	___ftge@ff1+2,f
  7478  16A8                     l2224:
  7479  16A8  3080               	movlw	128
  7480  16A9  06B3               	xorwf	___ftge@ff2+2,f
  7481  16AA                     l2226:
  7482  16AA  0833               	movf	___ftge@ff2+2,w
  7483  16AB  0230               	subwf	___ftge@ff1+2,w
  7484  16AC  1D03               	skipz
  7485  16AD  2EB4               	goto	u2415
  7486  16AE  0832               	movf	___ftge@ff2+1,w
  7487  16AF  022F               	subwf	___ftge@ff1+1,w
  7488  16B0  1D03               	skipz
  7489  16B1  2EB4               	goto	u2415
  7490  16B2  0831               	movf	___ftge@ff2,w
  7491  16B3  022E               	subwf	___ftge@ff1,w
  7492  16B4                     u2415:
  7493  16B4  1803               	skipnc
  7494  16B5  2EB7               	goto	u2411
  7495  16B6  2EB8               	goto	u2410
  7496  16B7                     u2411:
  7497  16B7  2EBA               	goto	l2230
  7498  16B8                     u2410:
  7499  16B8                     l2228:
  7500  16B8  1003               	clrc
  7501  16B9  2EBB               	goto	l736
  7502  16BA                     l2230:
  7503  16BA  1403               	setc
  7504  16BB                     l736:
  7505  16BB  0008               	return
  7506  16BC                     __end_of___ftge:
  7507                           
  7508                           	psect	text35
  7509  0020                     __ptext35:	
  7510 ;; *************** function ___ftdiv *****************
  7511 ;; Defined at:
  7512 ;;		line 56 in file "C:\Program Files\Microchip\xc8\v2.30\pic\sources\c90\common\ftdiv.c"
  7513 ;; Parameters:    Size  Location     Type
  7514 ;;  f2              3   27[BANK0 ] float 
  7515 ;;  f1              3   30[BANK0 ] float 
  7516 ;; Auto vars:     Size  Location     Type
  7517 ;;  f3              3   38[BANK0 ] float 
  7518 ;;  sign            1   42[BANK0 ] unsigned char 
  7519 ;;  exp             1   41[BANK0 ] unsigned char 
  7520 ;;  cntr            1   37[BANK0 ] unsigned char 
  7521 ;; Return value:  Size  Location     Type
  7522 ;;                  3   27[BANK0 ] float 
  7523 ;; Registers used:
  7524 ;;		wreg, status,2, status,0, pclath, cstack
  7525 ;; Tracked objects:
  7526 ;;		On entry : 0/0
  7527 ;;		On exit  : 0/0
  7528 ;;		Unchanged: 0/0
  7529 ;; Data sizes:     COMMON   BANK0   BANK1   BANK3   BANK2
  7530 ;;      Params:         0       6       0       0       0
  7531 ;;      Locals:         0       6       0       0       0
  7532 ;;      Temps:          0       4       0       0       0
  7533 ;;      Totals:         0      16       0       0       0
  7534 ;;Total ram usage:       16 bytes
  7535 ;; Hardware stack levels used:    1
  7536 ;; Hardware stack levels required when called:    3
  7537 ;; This function calls:
  7538 ;;		___ftpack
  7539 ;; This function is called by:
  7540 ;;		_read_temperatura_interior
  7541 ;;		_read_temperatura_exterior
  7542 ;;		_read_humedad
  7543 ;;		_read_intensidad_lumninosa
  7544 ;;		_read_potenciometro
  7545 ;;		_logica_Actuadores
  7546 ;; This function uses a non-reentrant model
  7547 ;;
  7548                           
  7549                           
  7550                           ;psect for function ___ftdiv
  7551  0020                     ___ftdiv:
  7552  0020                     l2172:	
  7553                           ;incstack = 0
  7554                           ; Regs used in ___ftdiv: [wreg+status,2+status,0+pclath+cstack]
  7555                           
  7556  0020  1283               	bcf	3,5	;RP0=0, select bank0
  7557  0021  1303               	bcf	3,6	;RP1=0, select bank0
  7558  0022  083E               	movf	___ftdiv@f1,w
  7559  0023  00C1               	movwf	??___ftdiv
  7560  0024  083F               	movf	___ftdiv@f1+1,w
  7561  0025  00C2               	movwf	??___ftdiv+1
  7562  0026  0840               	movf	___ftdiv@f1+2,w
  7563  0027  00C3               	movwf	??___ftdiv+2
  7564  0028  1003               	clrc
  7565  0029  0D42               	rlf	??___ftdiv+1,w
  7566  002A  0D43               	rlf	??___ftdiv+2,w
  7567  002B  00C4               	movwf	??___ftdiv+3
  7568  002C  0844               	movf	??___ftdiv+3,w
  7569  002D  00C9               	movwf	___ftdiv@exp
  7570  002E  0849               	movf	___ftdiv@exp,w
  7571  002F  1D03               	btfss	3,2
  7572  0030  2832               	goto	u2311
  7573  0031  2833               	goto	u2310
  7574  0032                     u2311:
  7575  0032  283A               	goto	l2178
  7576  0033                     u2310:
  7577  0033                     l2174:
  7578  0033  3000               	movlw	0
  7579  0034  00BB               	movwf	?___ftdiv
  7580  0035  3000               	movlw	0
  7581  0036  00BC               	movwf	?___ftdiv+1
  7582  0037  3000               	movlw	0
  7583  0038  00BD               	movwf	?___ftdiv+2
  7584  0039  28E1               	goto	l727
  7585  003A                     l2178:
  7586  003A  083B               	movf	___ftdiv@f2,w
  7587  003B  00C1               	movwf	??___ftdiv
  7588  003C  083C               	movf	___ftdiv@f2+1,w
  7589  003D  00C2               	movwf	??___ftdiv+1
  7590  003E  083D               	movf	___ftdiv@f2+2,w
  7591  003F  00C3               	movwf	??___ftdiv+2
  7592  0040  1003               	clrc
  7593  0041  0D42               	rlf	??___ftdiv+1,w
  7594  0042  0D43               	rlf	??___ftdiv+2,w
  7595  0043  00C4               	movwf	??___ftdiv+3
  7596  0044  0844               	movf	??___ftdiv+3,w
  7597  0045  00CA               	movwf	___ftdiv@sign
  7598  0046  084A               	movf	___ftdiv@sign,w
  7599  0047  1D03               	btfss	3,2
  7600  0048  284A               	goto	u2321
  7601  0049  284B               	goto	u2320
  7602  004A                     u2321:
  7603  004A  2852               	goto	l2184
  7604  004B                     u2320:
  7605  004B                     l2180:
  7606  004B  3000               	movlw	0
  7607  004C  00BB               	movwf	?___ftdiv
  7608  004D  3000               	movlw	0
  7609  004E  00BC               	movwf	?___ftdiv+1
  7610  004F  3000               	movlw	0
  7611  0050  00BD               	movwf	?___ftdiv+2
  7612  0051  28E1               	goto	l727
  7613  0052                     l2184:
  7614  0052  3000               	movlw	0
  7615  0053  00C6               	movwf	___ftdiv@f3
  7616  0054  3000               	movlw	0
  7617  0055  00C7               	movwf	___ftdiv@f3+1
  7618  0056  3000               	movlw	0
  7619  0057  00C8               	movwf	___ftdiv@f3+2
  7620  0058                     l2186:
  7621  0058  3089               	movlw	137
  7622  0059  074A               	addwf	___ftdiv@sign,w
  7623  005A  00C1               	movwf	??___ftdiv
  7624  005B  0841               	movf	??___ftdiv,w
  7625  005C  02C9               	subwf	___ftdiv@exp,f
  7626  005D                     l2188:
  7627  005D  083E               	movf	___ftdiv@f1,w
  7628  005E  00C1               	movwf	??___ftdiv
  7629  005F  083F               	movf	___ftdiv@f1+1,w
  7630  0060  00C2               	movwf	??___ftdiv+1
  7631  0061  0840               	movf	___ftdiv@f1+2,w
  7632  0062  00C3               	movwf	??___ftdiv+2
  7633  0063  3010               	movlw	16
  7634  0064                     u2335:
  7635  0064  1003               	clrc
  7636  0065  0CC3               	rrf	??___ftdiv+2,f
  7637  0066  0CC2               	rrf	??___ftdiv+1,f
  7638  0067  0CC1               	rrf	??___ftdiv,f
  7639  0068                     u2330:
  7640  0068  3EFF               	addlw	-1
  7641  0069  1D03               	skipz
  7642  006A  2864               	goto	u2335
  7643  006B  0841               	movf	??___ftdiv,w
  7644  006C  00C4               	movwf	??___ftdiv+3
  7645  006D  0844               	movf	??___ftdiv+3,w
  7646  006E  00CA               	movwf	___ftdiv@sign
  7647  006F                     l2190:
  7648  006F  083B               	movf	___ftdiv@f2,w
  7649  0070  00C1               	movwf	??___ftdiv
  7650  0071  083C               	movf	___ftdiv@f2+1,w
  7651  0072  00C2               	movwf	??___ftdiv+1
  7652  0073  083D               	movf	___ftdiv@f2+2,w
  7653  0074  00C3               	movwf	??___ftdiv+2
  7654  0075  3010               	movlw	16
  7655  0076                     u2345:
  7656  0076  1003               	clrc
  7657  0077  0CC3               	rrf	??___ftdiv+2,f
  7658  0078  0CC2               	rrf	??___ftdiv+1,f
  7659  0079  0CC1               	rrf	??___ftdiv,f
  7660  007A                     u2340:
  7661  007A  3EFF               	addlw	-1
  7662  007B  1D03               	skipz
  7663  007C  2876               	goto	u2345
  7664  007D  0841               	movf	??___ftdiv,w
  7665  007E  00C4               	movwf	??___ftdiv+3
  7666  007F  0844               	movf	??___ftdiv+3,w
  7667  0080  06CA               	xorwf	___ftdiv@sign,f
  7668  0081                     l2192:
  7669  0081  3080               	movlw	128
  7670  0082  00C1               	movwf	??___ftdiv
  7671  0083  0841               	movf	??___ftdiv,w
  7672  0084  05CA               	andwf	___ftdiv@sign,f
  7673  0085                     l2194:
  7674  0085  17BF               	bsf	___ftdiv@f1+1,7
  7675  0086  30FF               	movlw	255
  7676  0087  05BE               	andwf	___ftdiv@f1,f
  7677  0088  30FF               	movlw	255
  7678  0089  05BF               	andwf	___ftdiv@f1+1,f
  7679  008A  3000               	movlw	0
  7680  008B  05C0               	andwf	___ftdiv@f1+2,f
  7681  008C                     l2196:
  7682  008C  17BC               	bsf	___ftdiv@f2+1,7
  7683  008D  30FF               	movlw	255
  7684  008E  05BB               	andwf	___ftdiv@f2,f
  7685  008F  30FF               	movlw	255
  7686  0090  05BC               	andwf	___ftdiv@f2+1,f
  7687  0091  3000               	movlw	0
  7688  0092  05BD               	andwf	___ftdiv@f2+2,f
  7689  0093  3018               	movlw	24
  7690  0094  00C1               	movwf	??___ftdiv
  7691  0095  0841               	movf	??___ftdiv,w
  7692  0096  00C5               	movwf	___ftdiv@cntr
  7693  0097                     l2198:
  7694  0097  3001               	movlw	1
  7695  0098                     u2355:
  7696  0098  1003               	clrc
  7697  0099  0DC6               	rlf	___ftdiv@f3,f
  7698  009A  0DC7               	rlf	___ftdiv@f3+1,f
  7699  009B  0DC8               	rlf	___ftdiv@f3+2,f
  7700  009C  3EFF               	addlw	-1
  7701  009D  1D03               	skipz
  7702  009E  2898               	goto	u2355
  7703  009F                     l2200:
  7704  009F  083D               	movf	___ftdiv@f2+2,w
  7705  00A0  0240               	subwf	___ftdiv@f1+2,w
  7706  00A1  1D03               	skipz
  7707  00A2  28A9               	goto	u2365
  7708  00A3  083C               	movf	___ftdiv@f2+1,w
  7709  00A4  023F               	subwf	___ftdiv@f1+1,w
  7710  00A5  1D03               	skipz
  7711  00A6  28A9               	goto	u2365
  7712  00A7  083B               	movf	___ftdiv@f2,w
  7713  00A8  023E               	subwf	___ftdiv@f1,w
  7714  00A9                     u2365:
  7715  00A9  1C03               	skipc
  7716  00AA  28AC               	goto	u2361
  7717  00AB  28AD               	goto	u2360
  7718  00AC                     u2361:
  7719  00AC  28B8               	goto	l2206
  7720  00AD                     u2360:
  7721  00AD                     l2202:
  7722  00AD  083B               	movf	___ftdiv@f2,w
  7723  00AE  02BE               	subwf	___ftdiv@f1,f
  7724  00AF  083C               	movf	___ftdiv@f2+1,w
  7725  00B0  1C03               	skipc
  7726  00B1  0F3C               	incfsz	___ftdiv@f2+1,w
  7727  00B2  02BF               	subwf	___ftdiv@f1+1,f
  7728  00B3  083D               	movf	___ftdiv@f2+2,w
  7729  00B4  1C03               	skipc
  7730  00B5  0A3D               	incf	___ftdiv@f2+2,w
  7731  00B6  02C0               	subwf	___ftdiv@f1+2,f
  7732  00B7                     l2204:
  7733  00B7  1446               	bsf	___ftdiv@f3,0
  7734  00B8                     l2206:
  7735  00B8  3001               	movlw	1
  7736  00B9                     u2375:
  7737  00B9  1003               	clrc
  7738  00BA  0DBE               	rlf	___ftdiv@f1,f
  7739  00BB  0DBF               	rlf	___ftdiv@f1+1,f
  7740  00BC  0DC0               	rlf	___ftdiv@f1+2,f
  7741  00BD  3EFF               	addlw	-1
  7742  00BE  1D03               	skipz
  7743  00BF  28B9               	goto	u2375
  7744  00C0                     l2208:
  7745  00C0  3001               	movlw	1
  7746  00C1  02C5               	subwf	___ftdiv@cntr,f
  7747  00C2  1D03               	btfss	3,2
  7748  00C3  28C5               	goto	u2381
  7749  00C4  28C6               	goto	u2380
  7750  00C5                     u2381:
  7751  00C5  2897               	goto	l2198
  7752  00C6                     u2380:
  7753  00C6                     l2210:
  7754  00C6  0846               	movf	___ftdiv@f3,w
  7755  00C7  00A0               	movwf	___ftpack@arg
  7756  00C8  0847               	movf	___ftdiv@f3+1,w
  7757  00C9  00A1               	movwf	___ftpack@arg+1
  7758  00CA  0848               	movf	___ftdiv@f3+2,w
  7759  00CB  00A2               	movwf	___ftpack@arg+2
  7760  00CC  0849               	movf	___ftdiv@exp,w
  7761  00CD  00C1               	movwf	??___ftdiv
  7762  00CE  0841               	movf	??___ftdiv,w
  7763  00CF  00A3               	movwf	___ftpack@exp
  7764  00D0  084A               	movf	___ftdiv@sign,w
  7765  00D1  00C2               	movwf	??___ftdiv+1
  7766  00D2  0842               	movf	??___ftdiv+1,w
  7767  00D3  00A4               	movwf	___ftpack@sign
  7768  00D4  120A  158A  20A4  120A  118A  	fcall	___ftpack
  7769  00D9  1283               	bcf	3,5	;RP0=0, select bank0
  7770  00DA  1303               	bcf	3,6	;RP1=0, select bank0
  7771  00DB  0820               	movf	?___ftpack,w
  7772  00DC  00BB               	movwf	?___ftdiv
  7773  00DD  0821               	movf	?___ftpack+1,w
  7774  00DE  00BC               	movwf	?___ftdiv+1
  7775  00DF  0822               	movf	?___ftpack+2,w
  7776  00E0  00BD               	movwf	?___ftdiv+2
  7777  00E1                     l727:
  7778  00E1  0008               	return
  7779  00E2                     __end_of___ftdiv:
  7780                           
  7781                           	psect	text36
  7782  15F6                     __ptext36:	
  7783 ;; *************** function ___awtoft *****************
  7784 ;; Defined at:
  7785 ;;		line 32 in file "C:\Program Files\Microchip\xc8\v2.30\pic\sources\c90\common\awtoft.c"
  7786 ;; Parameters:    Size  Location     Type
  7787 ;;  c               2    8[BANK0 ] int 
  7788 ;; Auto vars:     Size  Location     Type
  7789 ;;  sign            1   13[BANK0 ] unsigned char 
  7790 ;; Return value:  Size  Location     Type
  7791 ;;                  3    8[BANK0 ] float 
  7792 ;; Registers used:
  7793 ;;		wreg, status,2, status,0, pclath, cstack
  7794 ;; Tracked objects:
  7795 ;;		On entry : 0/0
  7796 ;;		On exit  : 0/0
  7797 ;;		Unchanged: 0/0
  7798 ;; Data sizes:     COMMON   BANK0   BANK1   BANK3   BANK2
  7799 ;;      Params:         0       3       0       0       0
  7800 ;;      Locals:         0       1       0       0       0
  7801 ;;      Temps:          0       2       0       0       0
  7802 ;;      Totals:         0       6       0       0       0
  7803 ;;Total ram usage:        6 bytes
  7804 ;; Hardware stack levels used:    1
  7805 ;; Hardware stack levels required when called:    3
  7806 ;; This function calls:
  7807 ;;		___ftpack
  7808 ;; This function is called by:
  7809 ;;		_read_temperatura_interior
  7810 ;;		_read_temperatura_exterior
  7811 ;;		_read_humedad
  7812 ;;		_read_intensidad_lumninosa
  7813 ;;		_read_potenciometro
  7814 ;;		_logica_Actuadores
  7815 ;; This function uses a non-reentrant model
  7816 ;;
  7817                           
  7818                           
  7819                           ;psect for function ___awtoft
  7820  15F6                     ___awtoft:
  7821  15F6                     l2160:	
  7822                           ;incstack = 0
  7823                           ; Regs used in ___awtoft: [wreg+status,2+status,0+pclath+cstack]
  7824                           
  7825  15F6  1283               	bcf	3,5	;RP0=0, select bank0
  7826  15F7  1303               	bcf	3,6	;RP1=0, select bank0
  7827  15F8  01AD               	clrf	___awtoft@sign
  7828  15F9                     l2162:
  7829  15F9  1FA9               	btfss	___awtoft@c+1,7
  7830  15FA  2DFC               	goto	u2301
  7831  15FB  2DFD               	goto	u2300
  7832  15FC                     u2301:
  7833  15FC  2E04               	goto	l2168
  7834  15FD                     u2300:
  7835  15FD                     l2164:
  7836  15FD  09A8               	comf	___awtoft@c,f
  7837  15FE  09A9               	comf	___awtoft@c+1,f
  7838  15FF  0AA8               	incf	___awtoft@c,f
  7839  1600  1903               	skipnz
  7840  1601  0AA9               	incf	___awtoft@c+1,f
  7841  1602                     l2166:
  7842  1602  01AD               	clrf	___awtoft@sign
  7843  1603  0AAD               	incf	___awtoft@sign,f
  7844  1604                     l2168:
  7845  1604  0828               	movf	___awtoft@c,w
  7846  1605  00A0               	movwf	___ftpack@arg
  7847  1606  0829               	movf	___awtoft@c+1,w
  7848  1607  00A1               	movwf	___ftpack@arg+1
  7849  1608  01A2               	clrf	___ftpack@arg+2
  7850  1609  308E               	movlw	142
  7851  160A  00AB               	movwf	??___awtoft
  7852  160B  082B               	movf	??___awtoft,w
  7853  160C  00A3               	movwf	___ftpack@exp
  7854  160D  082D               	movf	___awtoft@sign,w
  7855  160E  00AC               	movwf	??___awtoft+1
  7856  160F  082C               	movf	??___awtoft+1,w
  7857  1610  00A4               	movwf	___ftpack@sign
  7858  1611  120A  158A  20A4  160A  118A  	fcall	___ftpack
  7859  1616  1283               	bcf	3,5	;RP0=0, select bank0
  7860  1617  1303               	bcf	3,6	;RP1=0, select bank0
  7861  1618  0820               	movf	?___ftpack,w
  7862  1619  00A8               	movwf	?___awtoft
  7863  161A  0821               	movf	?___ftpack+1,w
  7864  161B  00A9               	movwf	?___awtoft+1
  7865  161C  0822               	movf	?___ftpack+2,w
  7866  161D  00AA               	movwf	?___awtoft+2
  7867  161E                     l669:
  7868  161E  0008               	return
  7869  161F                     __end_of___awtoft:
  7870                           
  7871                           	psect	text37
  7872  08A4                     __ptext37:	
  7873 ;; *************** function ___ftpack *****************
  7874 ;; Defined at:
  7875 ;;		line 62 in file "C:\Program Files\Microchip\xc8\v2.30\pic\sources\c90\common\float.c"
  7876 ;; Parameters:    Size  Location     Type
  7877 ;;  arg             3    0[BANK0 ] unsigned um
  7878 ;;  exp             1    3[BANK0 ] unsigned char 
  7879 ;;  sign            1    4[BANK0 ] unsigned char 
  7880 ;; Auto vars:     Size  Location     Type
  7881 ;;		None
  7882 ;; Return value:  Size  Location     Type
  7883 ;;                  3    0[BANK0 ] float 
  7884 ;; Registers used:
  7885 ;;		wreg, status,2, status,0
  7886 ;; Tracked objects:
  7887 ;;		On entry : 0/0
  7888 ;;		On exit  : 0/0
  7889 ;;		Unchanged: 0/0
  7890 ;; Data sizes:     COMMON   BANK0   BANK1   BANK3   BANK2
  7891 ;;      Params:         0       5       0       0       0
  7892 ;;      Locals:         0       0       0       0       0
  7893 ;;      Temps:          0       3       0       0       0
  7894 ;;      Totals:         0       8       0       0       0
  7895 ;;Total ram usage:        8 bytes
  7896 ;; Hardware stack levels used:    1
  7897 ;; Hardware stack levels required when called:    2
  7898 ;; This function calls:
  7899 ;;		Nothing
  7900 ;; This function is called by:
  7901 ;;		___awtoft
  7902 ;;		___ftadd
  7903 ;;		___ftdiv
  7904 ;;		___ftmul
  7905 ;; This function uses a non-reentrant model
  7906 ;;
  7907                           
  7908                           
  7909                           ;psect for function ___ftpack
  7910  08A4                     ___ftpack:
  7911  08A4                     l1794:	
  7912                           ;incstack = 0
  7913                           ; Regs used in ___ftpack: [wreg+status,2+status,0]
  7914                           
  7915  08A4  1283               	bcf	3,5	;RP0=0, select bank0
  7916  08A5  1303               	bcf	3,6	;RP1=0, select bank0
  7917  08A6  0823               	movf	___ftpack@exp,w
  7918  08A7  1903               	btfsc	3,2
  7919  08A8  28AA               	goto	u1461
  7920  08A9  28AB               	goto	u1460
  7921  08AA                     u1461:
  7922  08AA  28B2               	goto	l1798
  7923  08AB                     u1460:
  7924  08AB                     l1796:
  7925  08AB  0822               	movf	___ftpack@arg+2,w
  7926  08AC  0421               	iorwf	___ftpack@arg+1,w
  7927  08AD  0420               	iorwf	___ftpack@arg,w
  7928  08AE  1D03               	skipz
  7929  08AF  28B1               	goto	u1471
  7930  08B0  28B2               	goto	u1470
  7931  08B1                     u1471:
  7932  08B1  28C5               	goto	l1804
  7933  08B2                     u1470:
  7934  08B2                     l1798:
  7935  08B2  3000               	movlw	0
  7936  08B3  00A0               	movwf	?___ftpack
  7937  08B4  3000               	movlw	0
  7938  08B5  00A1               	movwf	?___ftpack+1
  7939  08B6  3000               	movlw	0
  7940  08B7  00A2               	movwf	?___ftpack+2
  7941  08B8  2921               	goto	l675
  7942  08B9                     l1802:
  7943  08B9  3001               	movlw	1
  7944  08BA  00A5               	movwf	??___ftpack
  7945  08BB  0825               	movf	??___ftpack,w
  7946  08BC  07A3               	addwf	___ftpack@exp,f
  7947  08BD  3001               	movlw	1
  7948  08BE                     u1485:
  7949  08BE  1003               	clrc
  7950  08BF  0CA2               	rrf	___ftpack@arg+2,f
  7951  08C0  0CA1               	rrf	___ftpack@arg+1,f
  7952  08C1  0CA0               	rrf	___ftpack@arg,f
  7953  08C2  3EFF               	addlw	-1
  7954  08C3  1D03               	skipz
  7955  08C4  28BE               	goto	u1485
  7956  08C5                     l1804:
  7957  08C5  30FE               	movlw	254
  7958  08C6  0522               	andwf	___ftpack@arg+2,w
  7959  08C7  1D03               	btfss	3,2
  7960  08C8  28CA               	goto	u1491
  7961  08C9  28CB               	goto	u1490
  7962  08CA                     u1491:
  7963  08CA  28B9               	goto	l1802
  7964  08CB                     u1490:
  7965  08CB  28E2               	goto	l679
  7966  08CC                     l1806:
  7967  08CC  3001               	movlw	1
  7968  08CD  00A5               	movwf	??___ftpack
  7969  08CE  0825               	movf	??___ftpack,w
  7970  08CF  07A3               	addwf	___ftpack@exp,f
  7971  08D0                     l1808:
  7972  08D0  3001               	movlw	1
  7973  08D1  07A0               	addwf	___ftpack@arg,f
  7974  08D2  3000               	movlw	0
  7975  08D3  1803               	skipnc
  7976  08D4  3001               	movlw	1
  7977  08D5  07A1               	addwf	___ftpack@arg+1,f
  7978  08D6  3000               	movlw	0
  7979  08D7  1803               	skipnc
  7980  08D8  3001               	movlw	1
  7981  08D9  07A2               	addwf	___ftpack@arg+2,f
  7982  08DA                     l1810:
  7983  08DA  3001               	movlw	1
  7984  08DB                     u1505:
  7985  08DB  1003               	clrc
  7986  08DC  0CA2               	rrf	___ftpack@arg+2,f
  7987  08DD  0CA1               	rrf	___ftpack@arg+1,f
  7988  08DE  0CA0               	rrf	___ftpack@arg,f
  7989  08DF  3EFF               	addlw	-1
  7990  08E0  1D03               	skipz
  7991  08E1  28DB               	goto	u1505
  7992  08E2                     l679:
  7993  08E2  30FF               	movlw	255
  7994  08E3  0522               	andwf	___ftpack@arg+2,w
  7995  08E4  1D03               	btfss	3,2
  7996  08E5  28E7               	goto	u1511
  7997  08E6  28E8               	goto	u1510
  7998  08E7                     u1511:
  7999  08E7  28CC               	goto	l1806
  8000  08E8                     u1510:
  8001  08E8  28F3               	goto	l1814
  8002  08E9                     l1812:
  8003  08E9  3001               	movlw	1
  8004  08EA  02A3               	subwf	___ftpack@exp,f
  8005  08EB  3001               	movlw	1
  8006  08EC                     u1525:
  8007  08EC  1003               	clrc
  8008  08ED  0DA0               	rlf	___ftpack@arg,f
  8009  08EE  0DA1               	rlf	___ftpack@arg+1,f
  8010  08EF  0DA2               	rlf	___ftpack@arg+2,f
  8011  08F0  3EFF               	addlw	-1
  8012  08F1  1D03               	skipz
  8013  08F2  28EC               	goto	u1525
  8014  08F3                     l1814:
  8015  08F3  1BA1               	btfsc	___ftpack@arg+1,7
  8016  08F4  28F6               	goto	u1531
  8017  08F5  28F7               	goto	u1530
  8018  08F6                     u1531:
  8019  08F6  28FD               	goto	l686
  8020  08F7                     u1530:
  8021  08F7                     l1816:
  8022  08F7  3002               	movlw	2
  8023  08F8  0223               	subwf	___ftpack@exp,w
  8024  08F9  1803               	skipnc
  8025  08FA  28FC               	goto	u1541
  8026  08FB  28FD               	goto	u1540
  8027  08FC                     u1541:
  8028  08FC  28E9               	goto	l1812
  8029  08FD                     u1540:
  8030  08FD                     l686:
  8031  08FD  1823               	btfsc	___ftpack@exp,0
  8032  08FE  2900               	goto	u1551
  8033  08FF  2901               	goto	u1550
  8034  0900                     u1551:
  8035  0900  2907               	goto	l687
  8036  0901                     u1550:
  8037  0901                     l1818:
  8038  0901  30FF               	movlw	255
  8039  0902  05A0               	andwf	___ftpack@arg,f
  8040  0903  307F               	movlw	127
  8041  0904  05A1               	andwf	___ftpack@arg+1,f
  8042  0905  30FF               	movlw	255
  8043  0906  05A2               	andwf	___ftpack@arg+2,f
  8044  0907                     l687:
  8045  0907  1003               	clrc
  8046  0908  0CA3               	rrf	___ftpack@exp,f
  8047  0909                     l1820:
  8048  0909  0823               	movf	___ftpack@exp,w
  8049  090A  00A5               	movwf	??___ftpack
  8050  090B  01A6               	clrf	??___ftpack+1
  8051  090C  01A7               	clrf	??___ftpack+2
  8052  090D  3010               	movlw	16
  8053  090E                     u1565:
  8054  090E  1003               	clrc
  8055  090F  0DA5               	rlf	??___ftpack,f
  8056  0910  0DA6               	rlf	??___ftpack+1,f
  8057  0911  0DA7               	rlf	??___ftpack+2,f
  8058  0912                     u1560:
  8059  0912  3EFF               	addlw	-1
  8060  0913  1D03               	skipz
  8061  0914  290E               	goto	u1565
  8062  0915  0825               	movf	??___ftpack,w
  8063  0916  04A0               	iorwf	___ftpack@arg,f
  8064  0917  0826               	movf	??___ftpack+1,w
  8065  0918  04A1               	iorwf	___ftpack@arg+1,f
  8066  0919  0827               	movf	??___ftpack+2,w
  8067  091A  04A2               	iorwf	___ftpack@arg+2,f
  8068  091B                     l1822:
  8069  091B  0824               	movf	___ftpack@sign,w
  8070  091C  1903               	btfsc	3,2
  8071  091D  291F               	goto	u1571
  8072  091E  2920               	goto	u1570
  8073  091F                     u1571:
  8074  091F  2921               	goto	l688
  8075  0920                     u1570:
  8076  0920                     l1824:
  8077  0920  17A2               	bsf	___ftpack@arg+2,7
  8078  0921                     l688:
  8079  0921                     l675:
  8080  0921  0008               	return
  8081  0922                     __end_of___ftpack:
  8082                           
  8083                           	psect	text38
  8084  158E                     __ptext38:	
  8085 ;; *************** function _init_uart *****************
  8086 ;; Defined at:
  8087 ;;		line 14 in file "display.c"
  8088 ;; Parameters:    Size  Location     Type
  8089 ;;		None
  8090 ;; Auto vars:     Size  Location     Type
  8091 ;;		None
  8092 ;; Return value:  Size  Location     Type
  8093 ;;                  1    wreg      void 
  8094 ;; Registers used:
  8095 ;;		wreg, status,2
  8096 ;; Tracked objects:
  8097 ;;		On entry : 0/0
  8098 ;;		On exit  : 0/0
  8099 ;;		Unchanged: 0/0
  8100 ;; Data sizes:     COMMON   BANK0   BANK1   BANK3   BANK2
  8101 ;;      Params:         0       0       0       0       0
  8102 ;;      Locals:         0       0       0       0       0
  8103 ;;      Temps:          0       0       0       0       0
  8104 ;;      Totals:         0       0       0       0       0
  8105 ;;Total ram usage:        0 bytes
  8106 ;; Hardware stack levels used:    1
  8107 ;; Hardware stack levels required when called:    2
  8108 ;; This function calls:
  8109 ;;		Nothing
  8110 ;; This function is called by:
  8111 ;;		_main
  8112 ;; This function uses a non-reentrant model
  8113 ;;
  8114                           
  8115                           
  8116                           ;psect for function _init_uart
  8117  158E                     _init_uart:
  8118  158E                     l2422:	
  8119                           ;incstack = 0
  8120                           ; Regs used in _init_uart: [wreg+status,2]
  8121                           
  8122                           
  8123                           ;display.c: 16: TXSTAbits.SYNC = 0;
  8124  158E  1683               	bsf	3,5	;RP0=1, select bank1
  8125  158F  1303               	bcf	3,6	;RP1=0, select bank1
  8126  1590  1218               	bcf	24,4	;volatile
  8127                           
  8128                           ;display.c: 17: TXSTAbits.BRGH = 0;
  8129  1591  1118               	bcf	24,2	;volatile
  8130                           
  8131                           ;display.c: 18: BAUDCTLbits.BRG16 = 0;
  8132  1592  1683               	bsf	3,5	;RP0=1, select bank3
  8133  1593  1703               	bsf	3,6	;RP1=1, select bank3
  8134  1594  1187               	bcf	7,3	;volatile
  8135  1595                     l2424:
  8136                           
  8137                           ;display.c: 20: SPBRGH = 0;
  8138  1595  1683               	bsf	3,5	;RP0=1, select bank1
  8139  1596  1303               	bcf	3,6	;RP1=0, select bank1
  8140  1597  019A               	clrf	26	;volatile
  8141  1598                     l2426:
  8142                           
  8143                           ;display.c: 21: SPBRG = 32;
  8144  1598  3020               	movlw	32
  8145  1599  0099               	movwf	25	;volatile
  8146  159A                     l2428:
  8147                           
  8148                           ;display.c: 24: TXSTAbits.TX9 = 0;
  8149  159A  1318               	bcf	24,6	;volatile
  8150  159B                     l2430:
  8151                           
  8152                           ;display.c: 25: RCSTAbits.RX9 = 0;
  8153  159B  1283               	bcf	3,5	;RP0=0, select bank0
  8154  159C  1303               	bcf	3,6	;RP1=0, select bank0
  8155  159D  1318               	bcf	24,6	;volatile
  8156  159E                     l2432:
  8157                           
  8158                           ;display.c: 27: PIE1bits.TXIE = 0;
  8159  159E  1683               	bsf	3,5	;RP0=1, select bank1
  8160  159F  1303               	bcf	3,6	;RP1=0, select bank1
  8161  15A0  120C               	bcf	12,4	;volatile
  8162  15A1                     l2434:
  8163                           
  8164                           ;display.c: 28: PIE1bits.RCIE = 0;
  8165  15A1  128C               	bcf	12,5	;volatile
  8166  15A2                     l2436:
  8167                           
  8168                           ;display.c: 30: RCSTAbits.SPEN = 1;
  8169  15A2  1283               	bcf	3,5	;RP0=0, select bank0
  8170  15A3  1303               	bcf	3,6	;RP1=0, select bank0
  8171  15A4  1798               	bsf	24,7	;volatile
  8172  15A5                     l2438:
  8173                           
  8174                           ;display.c: 32: TXSTAbits.TXEN = 0;
  8175  15A5  1683               	bsf	3,5	;RP0=1, select bank1
  8176  15A6  1303               	bcf	3,6	;RP1=0, select bank1
  8177  15A7  1298               	bcf	24,5	;volatile
  8178  15A8                     l2440:
  8179                           
  8180                           ;display.c: 33: TXSTAbits.TXEN = 1;
  8181  15A8  1698               	bsf	24,5	;volatile
  8182  15A9                     l139:
  8183  15A9  0008               	return
  8184  15AA                     __end_of_init_uart:
  8185                           
  8186                           	psect	text39
  8187  14DB                     __ptext39:	
  8188 ;; *************** function _init_timer0 *****************
  8189 ;; Defined at:
  8190 ;;		line 31 in file "controlador3.c"
  8191 ;; Parameters:    Size  Location     Type
  8192 ;;		None
  8193 ;; Auto vars:     Size  Location     Type
  8194 ;;		None
  8195 ;; Return value:  Size  Location     Type
  8196 ;;                  1    wreg      void 
  8197 ;; Registers used:
  8198 ;;		wreg, status,2, status,0
  8199 ;; Tracked objects:
  8200 ;;		On entry : 0/0
  8201 ;;		On exit  : 0/0
  8202 ;;		Unchanged: 0/0
  8203 ;; Data sizes:     COMMON   BANK0   BANK1   BANK3   BANK2
  8204 ;;      Params:         0       0       0       0       0
  8205 ;;      Locals:         0       0       0       0       0
  8206 ;;      Temps:          0       0       0       0       0
  8207 ;;      Totals:         0       0       0       0       0
  8208 ;;Total ram usage:        0 bytes
  8209 ;; Hardware stack levels used:    1
  8210 ;; Hardware stack levels required when called:    2
  8211 ;; This function calls:
  8212 ;;		Nothing
  8213 ;; This function is called by:
  8214 ;;		_main
  8215 ;; This function uses a non-reentrant model
  8216 ;;
  8217                           
  8218                           
  8219                           ;psect for function _init_timer0
  8220  14DB                     _init_timer0:
  8221  14DB                     l2490:	
  8222                           ;incstack = 0
  8223                           ; Regs used in _init_timer0: [wreg+status,2+status,0]
  8224                           
  8225                           
  8226                           ;controlador3.c: 32: OPTION_REGbits.T0CS = 0;
  8227  14DB  1683               	bsf	3,5	;RP0=1, select bank1
  8228  14DC  1303               	bcf	3,6	;RP1=0, select bank1
  8229  14DD  1281               	bcf	1,5	;volatile
  8230                           
  8231                           ;controlador3.c: 33: OPTION_REGbits.PSA = 0;
  8232  14DE  1181               	bcf	1,3	;volatile
  8233  14DF                     l2492:
  8234                           
  8235                           ;controlador3.c: 34: OPTION_REGbits.PS = 0b111;
  8236  14DF  3007               	movlw	7
  8237  14E0  0481               	iorwf	1,f	;volatile
  8238  14E1                     l2494:
  8239                           
  8240                           ;controlador3.c: 35: TMR0 = 61;
  8241  14E1  303D               	movlw	61
  8242  14E2  1283               	bcf	3,5	;RP0=0, select bank0
  8243  14E3  1303               	bcf	3,6	;RP1=0, select bank0
  8244  14E4  0081               	movwf	1	;volatile
  8245  14E5                     l307:
  8246  14E5  0008               	return
  8247  14E6                     __end_of_init_timer0:
  8248                           
  8249                           	psect	text40
  8250  09AE                     __ptext40:	
  8251 ;; *************** function _Handler *****************
  8252 ;; Defined at:
  8253 ;;		line 46 in file "controlador3.c"
  8254 ;; Parameters:    Size  Location     Type
  8255 ;;		None
  8256 ;; Auto vars:     Size  Location     Type
  8257 ;;		None
  8258 ;; Return value:  Size  Location     Type
  8259 ;;                  1    wreg      void 
  8260 ;; Registers used:
  8261 ;;		wreg, status,2, status,0, pclath, cstack
  8262 ;; Tracked objects:
  8263 ;;		On entry : 0/0
  8264 ;;		On exit  : 0/0
  8265 ;;		Unchanged: 0/0
  8266 ;; Data sizes:     COMMON   BANK0   BANK1   BANK3   BANK2
  8267 ;;      Params:         0       0       0       0       0
  8268 ;;      Locals:         0       0       0       0       0
  8269 ;;      Temps:          3       0       0       0       0
  8270 ;;      Totals:         3       0       0       0       0
  8271 ;;Total ram usage:        3 bytes
  8272 ;; Hardware stack levels used:    1
  8273 ;; Hardware stack levels required when called:    1
  8274 ;; This function calls:
  8275 ;;		___awmod
  8276 ;; This function is called by:
  8277 ;;		Interrupt level 1
  8278 ;; This function uses a non-reentrant model
  8279 ;;
  8280                           
  8281                           
  8282                           ;psect for function _Handler
  8283  09AE                     _Handler:
  8284  09AE                     i1l2534:
  8285                           
  8286                           ;controlador3.c: 48: if (INTCONbits.T0IF) {
  8287  09AE  1D0B               	btfss	11,2	;volatile
  8288  09AF  29B1               	goto	u276_21
  8289  09B0  29B2               	goto	u276_20
  8290  09B1                     u276_21:
  8291  09B1  2A26               	goto	i1l320
  8292  09B2                     u276_20:
  8293  09B2                     i1l2536:
  8294                           
  8295                           ;controlador3.c: 49: TMR0 = 61;
  8296  09B2  303D               	movlw	61
  8297  09B3  1283               	bcf	3,5	;RP0=0, select bank0
  8298  09B4  1303               	bcf	3,6	;RP1=0, select bank0
  8299  09B5  0081               	movwf	1	;volatile
  8300  09B6                     i1l2538:
  8301                           
  8302                           ;controlador3.c: 51: if (cont == 501)
  8303  09B6  30F5               	movlw	245
  8304  09B7  067A               	xorwf	_cont,w
  8305  09B8  1D03               	skipz
  8306  09B9  29BE               	goto	u277_21
  8307  09BA  037B               	decf	_cont+1,w
  8308  09BB  1D03               	btfss	3,2
  8309  09BC  29BE               	goto	u277_21
  8310  09BD  29BF               	goto	u277_20
  8311  09BE                     u277_21:
  8312  09BE  29C3               	goto	i1l2542
  8313  09BF                     u277_20:
  8314  09BF                     i1l2540:
  8315                           
  8316                           ;controlador3.c: 52: cont = 1;
  8317  09BF  3001               	movlw	1
  8318  09C0  00FA               	movwf	_cont
  8319  09C1  3000               	movlw	0
  8320  09C2  00FB               	movwf	_cont+1
  8321  09C3                     i1l2542:
  8322                           
  8323                           ;controlador3.c: 54: if (cont % 25 == 0 && cont != 0) {
  8324  09C3  3019               	movlw	25
  8325  09C4  00F0               	movwf	___awmod@divisor
  8326  09C5  3000               	movlw	0
  8327  09C6  00F1               	movwf	___awmod@divisor+1
  8328  09C7  087B               	movf	_cont+1,w
  8329  09C8  00F3               	movwf	___awmod@dividend+1
  8330  09C9  087A               	movf	_cont,w
  8331  09CA  00F2               	movwf	___awmod@dividend
  8332  09CB  160A  118A  273E  120A  158A  	fcall	___awmod
  8333  09D0  0870               	movf	?___awmod,w
  8334  09D1  0471               	iorwf	?___awmod+1,w
  8335  09D2  1D03               	btfss	3,2
  8336  09D3  29D5               	goto	u278_21
  8337  09D4  29D6               	goto	u278_20
  8338  09D5                     u278_21:
  8339  09D5  2A1D               	goto	i1l2566
  8340  09D6                     u278_20:
  8341  09D6                     i1l2544:
  8342  09D6  087A               	movf	_cont,w
  8343  09D7  047B               	iorwf	_cont+1,w
  8344  09D8  1903               	btfsc	3,2
  8345  09D9  29DB               	goto	u279_21
  8346  09DA  29DC               	goto	u279_20
  8347  09DB                     u279_21:
  8348  09DB  2A1D               	goto	i1l2566
  8349  09DC                     u279_20:
  8350  09DC                     i1l2546:
  8351                           
  8352                           ;controlador3.c: 55: ADCready = 1;
  8353  09DC  3001               	movlw	1
  8354  09DD  1683               	bsf	3,5	;RP0=1, select bank1
  8355  09DE  1303               	bcf	3,6	;RP1=0, select bank1
  8356  09DF  00B0               	movwf	_ADCready^(0+128)
  8357  09E0  3000               	movlw	0
  8358  09E1  00B1               	movwf	(_ADCready^(0+128)+1)
  8359  09E2                     i1l2548:
  8360                           
  8361                           ;controlador3.c: 56: INTCONbits.T0IE = 0;
  8362  09E2  128B               	bcf	11,5	;volatile
  8363  09E3                     i1l2550:
  8364                           
  8365                           ;controlador3.c: 57: estadoActual = LeerPotenciometro;
  8366  09E3  01BF               	clrf	_estadoActual^(0+128)
  8367  09E4                     i1l2552:
  8368                           
  8369                           ;controlador3.c: 58: if (cont == 100 || cont == 200 || cont == 300 || cont == 400 || con
      +                          t == 500) {
  8370  09E4  3064               	movlw	100
  8371  09E5  067A               	xorwf	_cont,w
  8372  09E6  047B               	iorwf	_cont+1,w
  8373  09E7  1903               	btfsc	3,2
  8374  09E8  29EA               	goto	u280_21
  8375  09E9  29EB               	goto	u280_20
  8376  09EA                     u280_21:
  8377  09EA  2A0D               	goto	i1l325
  8378  09EB                     u280_20:
  8379  09EB                     i1l2554:
  8380  09EB  30C8               	movlw	200
  8381  09EC  067A               	xorwf	_cont,w
  8382  09ED  047B               	iorwf	_cont+1,w
  8383  09EE  1903               	btfsc	3,2
  8384  09EF  29F1               	goto	u281_21
  8385  09F0  29F2               	goto	u281_20
  8386  09F1                     u281_21:
  8387  09F1  2A0D               	goto	i1l325
  8388  09F2                     u281_20:
  8389  09F2                     i1l2556:
  8390  09F2  302C               	movlw	44
  8391  09F3  067A               	xorwf	_cont,w
  8392  09F4  1D03               	skipz
  8393  09F5  29FB               	goto	u282_20
  8394  09F6  037B               	decf	_cont+1,w
  8395  09F7  1903               	btfsc	3,2
  8396  09F8  29FA               	goto	u282_21
  8397  09F9  29FB               	goto	u282_20
  8398  09FA                     u282_21:
  8399  09FA  2A0D               	goto	i1l325
  8400  09FB                     u282_20:
  8401  09FB                     i1l2558:
  8402  09FB  3090               	movlw	144
  8403  09FC  067A               	xorwf	_cont,w
  8404  09FD  1D03               	skipz
  8405  09FE  2A04               	goto	u283_20
  8406  09FF  037B               	decf	_cont+1,w
  8407  0A00  1903               	btfsc	3,2
  8408  0A01  2A03               	goto	u283_21
  8409  0A02  2A04               	goto	u283_20
  8410  0A03                     u283_21:
  8411  0A03  2A0D               	goto	i1l325
  8412  0A04                     u283_20:
  8413  0A04                     i1l2560:
  8414  0A04  30F4               	movlw	244
  8415  0A05  067A               	xorwf	_cont,w
  8416  0A06  1D03               	skipz
  8417  0A07  2A0C               	goto	u284_21
  8418  0A08  037B               	decf	_cont+1,w
  8419  0A09  1D03               	btfss	3,2
  8420  0A0A  2A0C               	goto	u284_21
  8421  0A0B  2A0D               	goto	u284_20
  8422  0A0C                     u284_21:
  8423  0A0C  2A35               	goto	i1l330
  8424  0A0D                     u284_20:
  8425  0A0D                     i1l325:
  8426                           
  8427                           ;controlador3.c: 59: estadoInterrupcion = Sensores_Actuadores;
  8428  0A0D  01BE               	clrf	_estadoInterrupcion^(0+128)
  8429  0A0E  0ABE               	incf	_estadoInterrupcion^(0+128),f
  8430  0A0F                     i1l2562:
  8431                           
  8432                           ;controlador3.c: 60: if (cont == 500)
  8433  0A0F  30F4               	movlw	244
  8434  0A10  067A               	xorwf	_cont,w
  8435  0A11  1D03               	skipz
  8436  0A12  2A17               	goto	u285_21
  8437  0A13  037B               	decf	_cont+1,w
  8438  0A14  1D03               	btfss	3,2
  8439  0A15  2A17               	goto	u285_21
  8440  0A16  2A18               	goto	u285_20
  8441  0A17                     u285_21:
  8442  0A17  2A25               	goto	i1l327
  8443  0A18                     u285_20:
  8444  0A18                     i1l2564:
  8445                           
  8446                           ;controlador3.c: 61: estadoInterrupcion = MostrarDatos;
  8447  0A18  3002               	movlw	2
  8448  0A19  00F7               	movwf	??_Handler
  8449  0A1A  0877               	movf	??_Handler,w
  8450  0A1B  00BE               	movwf	_estadoInterrupcion^(0+128)
  8451  0A1C  2A35               	goto	i1l330
  8452  0A1D                     i1l2566:
  8453                           
  8454                           ;controlador3.c: 64: cont++;
  8455  0A1D  3001               	movlw	1
  8456  0A1E  07FA               	addwf	_cont,f
  8457  0A1F  1803               	skipnc
  8458  0A20  0AFB               	incf	_cont+1,f
  8459  0A21  3000               	movlw	0
  8460  0A22  07FB               	addwf	_cont+1,f
  8461  0A23                     i1l2568:
  8462                           
  8463                           ;controlador3.c: 65: INTCONbits.T0IF = 0;
  8464  0A23  110B               	bcf	11,2	;volatile
  8465  0A24  2A35               	goto	i1l330
  8466  0A25                     i1l327:
  8467                           
  8468                           ;controlador3.c: 67: };controlador3.c: 69: } else if (PIR1bits.ADIF == 1) {
  8469  0A25  2A35               	goto	i1l330
  8470  0A26                     i1l320:
  8471  0A26  1283               	bcf	3,5	;RP0=0, select bank0
  8472  0A27  1303               	bcf	3,6	;RP1=0, select bank0
  8473  0A28  1F0C               	btfss	12,6	;volatile
  8474  0A29  2A2B               	goto	u286_21
  8475  0A2A  2A2C               	goto	u286_20
  8476  0A2B                     u286_21:
  8477  0A2B  2A35               	goto	i1l330
  8478  0A2C                     u286_20:
  8479  0A2C                     i1l2570:
  8480                           
  8481                           ;controlador3.c: 70: ADCready = 1;
  8482  0A2C  3001               	movlw	1
  8483  0A2D  1683               	bsf	3,5	;RP0=1, select bank1
  8484  0A2E  1303               	bcf	3,6	;RP1=0, select bank1
  8485  0A2F  00B0               	movwf	_ADCready^(0+128)
  8486  0A30  3000               	movlw	0
  8487  0A31  00B1               	movwf	(_ADCready^(0+128)+1)
  8488  0A32                     i1l2572:
  8489                           
  8490                           ;controlador3.c: 71: PIR1bits.ADIF = 0;
  8491  0A32  1283               	bcf	3,5	;RP0=0, select bank0
  8492  0A33  1303               	bcf	3,6	;RP1=0, select bank0
  8493  0A34  130C               	bcf	12,6	;volatile
  8494  0A35                     i1l330:
  8495  0A35  0879               	movf	??_Handler+2,w
  8496  0A36  008A               	movwf	10
  8497  0A37  0E78               	swapf	??_Handler+1,w
  8498  0A38  0083               	movwf	3
  8499  0A39  0EFE               	swapf	btemp,f
  8500  0A3A  0E7E               	swapf	btemp,w
  8501  0A3B  0009               	retfie
  8502  0A3C                     __end_of_Handler:
  8503                           
  8504                           	psect	intentry
  8505  0004                     __pintentry:	
  8506                           ;incstack = 0
  8507                           ; Regs used in _Handler: [wreg+status,2+status,0+pclath+cstack]
  8508                           
  8509  0004                     interrupt_function:
  8510  007E                     saved_w	set	btemp
  8511  0004  00FE               	movwf	btemp
  8512  0005  0E03               	swapf	3,w
  8513  0006  00F8               	movwf	??_Handler+1
  8514  0007  080A               	movf	10,w
  8515  0008  00F9               	movwf	??_Handler+2
  8516  0009  120A  158A  29AE   	ljmp	_Handler
  8517                           
  8518                           	psect	text41
  8519  173E                     __ptext41:	
  8520 ;; *************** function ___awmod *****************
  8521 ;; Defined at:
  8522 ;;		line 5 in file "C:\Program Files\Microchip\xc8\v2.30\pic\sources\c90\common\awmod.c"
  8523 ;; Parameters:    Size  Location     Type
  8524 ;;  divisor         2    0[COMMON] int 
  8525 ;;  dividend        2    2[COMMON] int 
  8526 ;; Auto vars:     Size  Location     Type
  8527 ;;  sign            1    6[COMMON] unsigned char 
  8528 ;;  counter         1    5[COMMON] unsigned char 
  8529 ;; Return value:  Size  Location     Type
  8530 ;;                  2    0[COMMON] int 
  8531 ;; Registers used:
  8532 ;;		wreg, status,2, status,0
  8533 ;; Tracked objects:
  8534 ;;		On entry : 0/0
  8535 ;;		On exit  : 0/0
  8536 ;;		Unchanged: 0/0
  8537 ;; Data sizes:     COMMON   BANK0   BANK1   BANK3   BANK2
  8538 ;;      Params:         4       0       0       0       0
  8539 ;;      Locals:         2       0       0       0       0
  8540 ;;      Temps:          1       0       0       0       0
  8541 ;;      Totals:         7       0       0       0       0
  8542 ;;Total ram usage:        7 bytes
  8543 ;; Hardware stack levels used:    1
  8544 ;; This function calls:
  8545 ;;		Nothing
  8546 ;; This function is called by:
  8547 ;;		_Handler
  8548 ;; This function uses a non-reentrant model
  8549 ;;
  8550                           
  8551                           
  8552                           ;psect for function ___awmod
  8553  173E                     ___awmod:
  8554  173E                     i1l2496:	
  8555                           ;incstack = 0
  8556                           ; Regs used in ___awmod: [wreg+status,2+status,0]
  8557                           
  8558  173E  01F6               	clrf	___awmod@sign
  8559  173F                     i1l2498:
  8560  173F  1FF3               	btfss	___awmod@dividend+1,7
  8561  1740  2F42               	goto	u267_21
  8562  1741  2F43               	goto	u267_20
  8563  1742                     u267_21:
  8564  1742  2F4A               	goto	i1l2504
  8565  1743                     u267_20:
  8566  1743                     i1l2500:
  8567  1743  09F2               	comf	___awmod@dividend,f
  8568  1744  09F3               	comf	___awmod@dividend+1,f
  8569  1745  0AF2               	incf	___awmod@dividend,f
  8570  1746  1903               	skipnz
  8571  1747  0AF3               	incf	___awmod@dividend+1,f
  8572  1748                     i1l2502:
  8573  1748  01F6               	clrf	___awmod@sign
  8574  1749  0AF6               	incf	___awmod@sign,f
  8575  174A                     i1l2504:
  8576  174A  1FF1               	btfss	___awmod@divisor+1,7
  8577  174B  2F4D               	goto	u268_21
  8578  174C  2F4E               	goto	u268_20
  8579  174D                     u268_21:
  8580  174D  2F53               	goto	i1l2508
  8581  174E                     u268_20:
  8582  174E                     i1l2506:
  8583  174E  09F0               	comf	___awmod@divisor,f
  8584  174F  09F1               	comf	___awmod@divisor+1,f
  8585  1750  0AF0               	incf	___awmod@divisor,f
  8586  1751  1903               	skipnz
  8587  1752  0AF1               	incf	___awmod@divisor+1,f
  8588  1753                     i1l2508:
  8589  1753  0870               	movf	___awmod@divisor,w
  8590  1754  0471               	iorwf	___awmod@divisor+1,w
  8591  1755  1903               	btfsc	3,2
  8592  1756  2F58               	goto	u269_21
  8593  1757  2F59               	goto	u269_20
  8594  1758                     u269_21:
  8595  1758  2F88               	goto	i1l2526
  8596  1759                     u269_20:
  8597  1759                     i1l2510:
  8598  1759  01F5               	clrf	___awmod@counter
  8599  175A  0AF5               	incf	___awmod@counter,f
  8600  175B  2F67               	goto	i1l2516
  8601  175C                     i1l2512:
  8602  175C  3001               	movlw	1
  8603  175D                     u270_25:
  8604  175D  1003               	clrc
  8605  175E  0DF0               	rlf	___awmod@divisor,f
  8606  175F  0DF1               	rlf	___awmod@divisor+1,f
  8607  1760  3EFF               	addlw	-1
  8608  1761  1D03               	skipz
  8609  1762  2F5D               	goto	u270_25
  8610  1763                     i1l2514:
  8611  1763  3001               	movlw	1
  8612  1764  00F4               	movwf	??___awmod
  8613  1765  0874               	movf	??___awmod,w
  8614  1766  07F5               	addwf	___awmod@counter,f
  8615  1767                     i1l2516:
  8616  1767  1FF1               	btfss	___awmod@divisor+1,7
  8617  1768  2F6A               	goto	u271_21
  8618  1769  2F6B               	goto	u271_20
  8619  176A                     u271_21:
  8620  176A  2F5C               	goto	i1l2512
  8621  176B                     u271_20:
  8622  176B                     i1l2518:
  8623  176B  0871               	movf	___awmod@divisor+1,w
  8624  176C  0273               	subwf	___awmod@dividend+1,w
  8625  176D  1D03               	skipz
  8626  176E  2F71               	goto	u272_25
  8627  176F  0870               	movf	___awmod@divisor,w
  8628  1770  0272               	subwf	___awmod@dividend,w
  8629  1771                     u272_25:
  8630  1771  1C03               	skipc
  8631  1772  2F74               	goto	u272_21
  8632  1773  2F75               	goto	u272_20
  8633  1774                     u272_21:
  8634  1774  2F7B               	goto	i1l2522
  8635  1775                     u272_20:
  8636  1775                     i1l2520:
  8637  1775  0870               	movf	___awmod@divisor,w
  8638  1776  02F2               	subwf	___awmod@dividend,f
  8639  1777  0871               	movf	___awmod@divisor+1,w
  8640  1778  1C03               	skipc
  8641  1779  03F3               	decf	___awmod@dividend+1,f
  8642  177A  02F3               	subwf	___awmod@dividend+1,f
  8643  177B                     i1l2522:
  8644  177B  3001               	movlw	1
  8645  177C                     u273_25:
  8646  177C  1003               	clrc
  8647  177D  0CF1               	rrf	___awmod@divisor+1,f
  8648  177E  0CF0               	rrf	___awmod@divisor,f
  8649  177F  3EFF               	addlw	-1
  8650  1780  1D03               	skipz
  8651  1781  2F7C               	goto	u273_25
  8652  1782                     i1l2524:
  8653  1782  3001               	movlw	1
  8654  1783  02F5               	subwf	___awmod@counter,f
  8655  1784  1D03               	btfss	3,2
  8656  1785  2F87               	goto	u274_21
  8657  1786  2F88               	goto	u274_20
  8658  1787                     u274_21:
  8659  1787  2F6B               	goto	i1l2518
  8660  1788                     u274_20:
  8661  1788                     i1l2526:
  8662  1788  0876               	movf	___awmod@sign,w
  8663  1789  1903               	btfsc	3,2
  8664  178A  2F8C               	goto	u275_21
  8665  178B  2F8D               	goto	u275_20
  8666  178C                     u275_21:
  8667  178C  2F92               	goto	i1l2530
  8668  178D                     u275_20:
  8669  178D                     i1l2528:
  8670  178D  09F2               	comf	___awmod@dividend,f
  8671  178E  09F3               	comf	___awmod@dividend+1,f
  8672  178F  0AF2               	incf	___awmod@dividend,f
  8673  1790  1903               	skipnz
  8674  1791  0AF3               	incf	___awmod@dividend+1,f
  8675  1792                     i1l2530:
  8676  1792  0873               	movf	___awmod@dividend+1,w
  8677  1793  00F1               	movwf	?___awmod+1
  8678  1794  0872               	movf	___awmod@dividend,w
  8679  1795  00F0               	movwf	?___awmod
  8680  1796                     i1l663:
  8681  1796  0008               	return
  8682  1797                     __end_of___awmod:
  8683  007E                     btemp	set	126	;btemp
  8684  007E                     wtemp0	set	126
  8685                           
  8686                           	psect	config
  8687                           
  8688                           ;Config register CONFIG1 @ 0x2007
  8689                           ;	Oscillator Selection bits
  8690                           ;	FOSC = HS, HS oscillator: High-speed crystal/resonator on RA6/OSC2/CLKOUT and RA7/OSC1
      +                          /CLKIN
  8691                           ;	Watchdog Timer Enable bit
  8692                           ;	WDTE = OFF, WDT disabled and can be enabled by SWDTEN bit of the WDTCON register
  8693                           ;	Power-up Timer Enable bit
  8694                           ;	PWRTE = ON, PWRT enabled
  8695                           ;	RE3/MCLR pin function select bit
  8696                           ;	MCLRE = ON, RE3/MCLR pin function is MCLR
  8697                           ;	Code Protection bit
  8698                           ;	CP = OFF, Program memory code protection is disabled
  8699                           ;	Data Code Protection bit
  8700                           ;	CPD = OFF, Data memory code protection is disabled
  8701                           ;	Brown Out Reset Selection bits
  8702                           ;	BOREN = OFF, BOR disabled
  8703                           ;	Internal External Switchover bit
  8704                           ;	IESO = OFF, Internal/External Switchover mode is disabled
  8705                           ;	Fail-Safe Clock Monitor Enabled bit
  8706                           ;	FCMEN = OFF, Fail-Safe Clock Monitor is disabled
  8707                           ;	Low Voltage Programming Enable bit
  8708                           ;	LVP = OFF, RB3 pin has digital I/O, HV on MCLR must be used for programming
  8709                           ;	In-Circuit Debugger Mode bit
  8710                           ;	DEBUG = 0x1, unprogrammed default
  8711  2007                     	org	8199
  8712  2007  20E2               	dw	8418
  8713                           
  8714                           ;Config register CONFIG2 @ 0x2008
  8715                           ;	Brown-out Reset Selection bit
  8716                           ;	BOR4V = BOR40V, Brown-out Reset set to 4.0V
  8717                           ;	Flash Program Memory Self Write Enable bits
  8718                           ;	WRT = OFF, Write protection off
  8719  2008                     	org	8200
  8720  2008  3FFF               	dw	16383

Data Sizes:
    Strings     489
    Constant    10
    Data        0
    BSS         38
    Persistent  0
    Stack       0

Auto Spaces:
    Space          Size  Autos    Used
    COMMON           14     10      14
    BANK0            80     79      79
    BANK1            80     28      62
    BANK3            96      0       0
    BANK2            96      0       0

Pointer List with Targets:

    printf@f	PTR const unsigned char  size(2) Largest target is 65
		 -> STR_18(CODE[35]), STR_17(CODE[21]), STR_16(CODE[28]), STR_15(CODE[14]), 
		 -> STR_14(CODE[18]), STR_13(CODE[32]), STR_12(CODE[28]), STR_11(CODE[16]), 
		 -> STR_10(CODE[28]), STR_9(CODE[28]), STR_8(CODE[11]), STR_7(CODE[49]), 
		 -> STR_6(CODE[65]), STR_5(CODE[29]), STR_4(CODE[19]), STR_3(CODE[25]), 
		 -> STR_2(CODE[15]), STR_1(CODE[28]), 

    printf@ap	PTR void [1] size(1) Largest target is 2
		 -> ?_printf(BANK0[2]), 


Critical Paths under _main in COMMON

    None.

Critical Paths under _Handler in COMMON

    _Handler->___awmod

Critical Paths under _main in BANK0

    _main->_printf
    _read_temperatura_interior->___fttol
    _read_temperatura_exterior->_printf
    ___ftsub->___ftdiv
    _read_potenciometro->_printf
    _read_intensidad_lumninosa->_printf
    _read_humedad->_printf
    ___ftadd->___awtoft
    _mostrarDatos->_printf
    _get_velocidad_ventilador->___fttol
    _mostrarConsigna->_printf
    _mensajeBienvenida->_printf
    _logica_Actuadores->_printf
    _set_Ventilador->___fttol
    _printf->_get_velocidad_ventilador
    ___lwmod->___lwdiv
    _get_tempObjetivo->___awdiv
    ___awdiv->___wmul
    ___fttol->___ftmul
    ___ftmul->___ftdiv
    ___ftge->___awtoft
    ___ftdiv->___ftadd
    ___awtoft->___ftpack

Critical Paths under _Handler in BANK0

    None.

Critical Paths under _main in BANK1

    _main->_read_temperatura_exterior
    _read_temperatura_exterior->_printf
    _read_potenciometro->_printf
    _read_intensidad_lumninosa->_printf
    _read_humedad->_printf
    _mostrarDatos->_printf
    _mostrarConsigna->_printf
    _mensajeBienvenida->_printf
    _logica_Actuadores->_printf

Critical Paths under _Handler in BANK1

    None.

Critical Paths under _main in BANK3

    None.

Critical Paths under _Handler in BANK3

    None.

Critical Paths under _main in BANK2

    None.

Critical Paths under _Handler in BANK2

    None.

Call Graph Tables:

 ---------------------------------------------------------------------------------
 (Depth) Function   	        Calls       Base Space   Used Autos Params    Refs
 ---------------------------------------------------------------------------------
 (0) _main                                                 3     3      0   80229
                                             25 BANK1      3     3      0
                        _init_timer0
                          _init_uart
                  _logica_Actuadores
                  _mensajeBienvenida
                    _mostrarConsigna
                       _mostrarDatos
                             _printf
                       _read_humedad
          _read_intensidad_lumninosa
                 _read_potenciometro
          _read_temperatura_exterior
          _read_temperatura_interior
                  _set_up_Actuadores
                    _set_up_Sensores
 ---------------------------------------------------------------------------------
 (1) _set_up_Sensores                                      0     0      0       0
 ---------------------------------------------------------------------------------
 (1) _set_up_Actuadores                                    0     0      0       0
                      _init_PWM_CCP1
                        _init_timer2
 ---------------------------------------------------------------------------------
 (2) _init_timer2                                          0     0      0       0
 ---------------------------------------------------------------------------------
 (2) _init_PWM_CCP1                                        0     0      0       0
 ---------------------------------------------------------------------------------
 (1) _read_temperatura_interior                           10    10      0   10027
                                             73 BANK0      2     2      0
                                              0 BANK1      8     8      0
                           ___awtoft
                            ___ftdiv
                            ___ftmul
                            ___fttol
                             ___wmul
 ---------------------------------------------------------------------------------
 (1) _read_temperatura_exterior                           16    16      0   12571
                                              9 BANK1     16    16      0
                           ___awtoft
                            ___ftdiv
                            ___ftsub
                            ___fttol
                             ___wmul
                             _printf
 ---------------------------------------------------------------------------------
 (2) ___ftsub                                              6     0      6    3172
                                             43 BANK0      6     0      6
                           ___awtoft (ARG)
                            ___ftadd
                            ___ftdiv (ARG)
                             ___wmul (ARG)
 ---------------------------------------------------------------------------------
 (1) _read_potenciometro                                   9     9      0   12479
                                              9 BANK1      9     9      0
                           ___awtoft
                            ___ftdiv
                            ___ftmul
                            ___fttol
                             ___wmul
                   _get_tempObjetivo
                             _printf
 ---------------------------------------------------------------------------------
 (1) _read_intensidad_lumninosa                           10    10      0    9375
                                              9 BANK1     10    10      0
                           ___awtoft
                            ___ftdiv
                            ___fttol
                             ___wmul
                             _printf
 ---------------------------------------------------------------------------------
 (1) _read_humedad                                        10    10      0   12352
                                              9 BANK1     10    10      0
                           ___awtoft
                            ___ftadd
                            ___ftdiv
                            ___fttol
                             ___wmul
                             _printf
 ---------------------------------------------------------------------------------
 (3) ___ftadd                                             13     7      6    2999
                                             14 BANK0     13     7      6
                           ___awtoft (ARG)
                           ___ftpack
                             ___wmul (ARG)
 ---------------------------------------------------------------------------------
 (1) _mostrarDatos                                         0     0      0    2593
                        _get_humedad
            _get_intensidad_luminosa
           _get_temperatura_exterior
           _get_temperatura_interior
           _get_velocidad_ventilador
                             _printf
 ---------------------------------------------------------------------------------
 (2) _get_velocidad_ventilador                             2     0      2     676
                                             73 BANK0      2     0      2
                            ___fttol
 ---------------------------------------------------------------------------------
 (2) _get_temperatura_exterior                             2     0      2       0
                                              0 BANK0      2     0      2
 ---------------------------------------------------------------------------------
 (2) _get_intensidad_luminosa                              2     0      2       0
                                              0 BANK0      2     0      2
 ---------------------------------------------------------------------------------
 (2) _get_humedad                                          2     0      2       0
                                              0 BANK0      2     0      2
 ---------------------------------------------------------------------------------
 (1) _mostrarConsigna                                      0     0      0    2429
                   _get_tempObjetivo
                             _printf
 ---------------------------------------------------------------------------------
 (1) _mensajeBienvenida                                    0     0      0    1917
                             _printf
 ---------------------------------------------------------------------------------
 (1) _logica_Actuadores                                    0     0      0   14569
                           ___awtoft
                            ___ftdiv
                             ___ftge
                            ___ftmul
                            ___fttol
                             ___wmul
              _get_lastPotenciometro
                   _get_tempObjetivo
           _get_temperatura_interior
                             _printf
                     _set_Calefactor
                   _set_Refrigerador
                     _set_Ventilador
 ---------------------------------------------------------------------------------
 (2) _set_Ventilador                                       4     2      2    1474
                                             73 BANK0      4     2      2
                            ___awdiv
                            ___fttol (ARG)
                             ___wmul
 ---------------------------------------------------------------------------------
 (2) ___wmul                                               6     2      4     834
                                              0 BANK0      6     2      4
 ---------------------------------------------------------------------------------
 (2) _set_Refrigerador                                     2     0      2     128
                                              0 BANK0      2     0      2
 ---------------------------------------------------------------------------------
 (2) _set_Calefactor                                       2     0      2     128
                                              0 BANK0      2     0      2
 ---------------------------------------------------------------------------------
 (2) _printf                                              21    17      4    1917
                                             75 BANK0      4     0      4
                                              0 BANK1      9     9      0
                            ___lwdiv
                            ___lwmod
                        _get_humedad (ARG)
            _get_intensidad_luminosa (ARG)
                   _get_tempObjetivo (ARG)
           _get_temperatura_exterior (ARG)
           _get_temperatura_interior (ARG)
           _get_velocidad_ventilador (ARG)
                              _putch
 ---------------------------------------------------------------------------------
 (3) _putch                                                1     1      0      22
                                              0 BANK0      1     1      0
 ---------------------------------------------------------------------------------
 (3) ___lwmod                                              6     2      4     265
                                              8 BANK0      6     2      4
                            ___lwdiv (ARG)
 ---------------------------------------------------------------------------------
 (3) ___lwdiv                                              8     4      4     268
                                              0 BANK0      8     4      4
 ---------------------------------------------------------------------------------
 (2) _get_temperatura_interior                             2     0      2       0
                                              0 BANK0      2     0      2
 ---------------------------------------------------------------------------------
 (2) _get_tempObjetivo                                     2     0      2     512
                                             15 BANK0      2     0      2
                            ___awdiv
 ---------------------------------------------------------------------------------
 (3) ___awdiv                                              9     5      4     512
                                              6 BANK0      9     5      4
                             ___wmul (ARG)
 ---------------------------------------------------------------------------------
 (2) _get_lastPotenciometro                                3     0      3       0
                                              0 BANK0      3     0      3
 ---------------------------------------------------------------------------------
 (2) ___fttol                                             14    10      4     676
                                             59 BANK0     14    10      4
                            ___ftdiv (ARG)
                            ___ftmul (ARG)
 ---------------------------------------------------------------------------------
 (2) ___ftmul                                             16    10      6    2591
                                             43 BANK0     16    10      6
                           ___awtoft (ARG)
                            ___ftdiv (ARG)
                           ___ftpack
                             ___wmul (ARG)
 ---------------------------------------------------------------------------------
 (2) ___ftge                                               6     0      6     454
                                             14 BANK0      6     0      6
                           ___awtoft (ARG)
              _get_lastPotenciometro (ARG)
 ---------------------------------------------------------------------------------
 (2) ___ftdiv                                             16    10      6    3393
                                             27 BANK0     16    10      6
                           ___awtoft (ARG)
                            ___ftadd (ARG)
                           ___ftpack
                           ___ftpack (ARG)
                             ___wmul (ARG)
 ---------------------------------------------------------------------------------
 (2) ___awtoft                                             6     3      3    2462
                                              8 BANK0      6     3      3
                           ___ftpack
                             ___wmul (ARG)
 ---------------------------------------------------------------------------------
 (3) ___ftpack                                             8     3      5    1947
                                              0 BANK0      8     3      5
 ---------------------------------------------------------------------------------
 (1) _init_uart                                            0     0      0       0
 ---------------------------------------------------------------------------------
 (1) _init_timer0                                          0     0      0       0
 ---------------------------------------------------------------------------------
 Estimated maximum stack depth 3
 ---------------------------------------------------------------------------------
 (Depth) Function   	        Calls       Base Space   Used Autos Params    Refs
 ---------------------------------------------------------------------------------
 (5) _Handler                                              3     3      0     402
                                              7 COMMON     3     3      0
                            ___awmod
 ---------------------------------------------------------------------------------
 (6) ___awmod                                              7     3      4     402
                                              0 COMMON     7     3      4
 ---------------------------------------------------------------------------------
 Estimated maximum stack depth 6
 ---------------------------------------------------------------------------------

 Call Graph Graphs:

 _main (ROOT)
   _init_timer0
   _init_uart
   _logica_Actuadores
     ___awtoft
       ___ftpack
       ___wmul (ARG)
     ___ftdiv
       ___awtoft (ARG)
         ___ftpack
         ___wmul (ARG)
       ___ftadd (ARG)
         ___awtoft (ARG)
           ___ftpack
           ___wmul (ARG)
         ___ftpack (ARG)
         ___wmul (ARG)
       ___ftpack (ARG)
       ___ftpack (ARG)
       ___wmul (ARG)
     ___ftge
       ___awtoft (ARG)
         ___ftpack
         ___wmul (ARG)
       _get_lastPotenciometro (ARG)
     ___ftmul
       ___awtoft (ARG)
         ___ftpack
         ___wmul (ARG)
       ___ftdiv (ARG)
         ___awtoft (ARG)
           ___ftpack
           ___wmul (ARG)
         ___ftadd (ARG)
           ___awtoft (ARG)
             ___ftpack
             ___wmul (ARG)
           ___ftpack (ARG)
           ___wmul (ARG)
         ___ftpack (ARG)
         ___ftpack (ARG)
         ___wmul (ARG)
       ___ftpack (ARG)
       ___wmul (ARG)
     ___fttol
       ___ftdiv (ARG)
         ___awtoft (ARG)
           ___ftpack
           ___wmul (ARG)
         ___ftadd (ARG)
           ___awtoft (ARG)
             ___ftpack
             ___wmul (ARG)
           ___ftpack (ARG)
           ___wmul (ARG)
         ___ftpack (ARG)
         ___ftpack (ARG)
         ___wmul (ARG)
       ___ftmul (ARG)
         ___awtoft (ARG)
           ___ftpack
           ___wmul (ARG)
         ___ftdiv (ARG)
           ___awtoft (ARG)
             ___ftpack
             ___wmul (ARG)
           ___ftadd (ARG)
             ___awtoft (ARG)
               ___ftpack
               ___wmul (ARG)
             ___ftpack (ARG)
             ___wmul (ARG)
           ___ftpack (ARG)
           ___ftpack (ARG)
           ___wmul (ARG)
         ___ftpack (ARG)
         ___wmul (ARG)
     ___wmul
     _get_lastPotenciometro
     _get_tempObjetivo
       ___awdiv
         ___wmul (ARG)
     _get_temperatura_interior
     _printf
       ___lwdiv
       ___lwmod
         ___lwdiv (ARG)
       _get_humedad (ARG)
       _get_intensidad_luminosa (ARG)
       _get_tempObjetivo (ARG)
         ___awdiv
           ___wmul (ARG)
       _get_temperatura_exterior (ARG)
       _get_temperatura_interior (ARG)
       _get_velocidad_ventilador (ARG)
         ___fttol
           ___ftdiv (ARG)
             ___awtoft (ARG)
               ___ftpack
               ___wmul (ARG)
             ___ftadd (ARG)
               ___awtoft (ARG)
                 ___ftpack
                 ___wmul (ARG)
               ___ftpack (ARG)
               ___wmul (ARG)
             ___ftpack (ARG)
             ___ftpack (ARG)
             ___wmul (ARG)
           ___ftmul (ARG)
             ___awtoft (ARG)
               ___ftpack
               ___wmul (ARG)
             ___ftdiv (ARG)
               ___awtoft (ARG)
                 ___ftpack
                 ___wmul (ARG)
               ___ftadd (ARG)
                 ___awtoft (ARG)
                   ___ftpack
                   ___wmul (ARG)
                 ___ftpack (ARG)
                 ___wmul (ARG)
               ___ftpack (ARG)
               ___ftpack (ARG)
               ___wmul (ARG)
             ___ftpack (ARG)
             ___wmul (ARG)
       _putch (ARG)
     _set_Calefactor
     _set_Refrigerador
     _set_Ventilador
       ___awdiv
         ___wmul (ARG)
       ___fttol (ARG)
         ___ftdiv (ARG)
           ___awtoft (ARG)
             ___ftpack
             ___wmul (ARG)
           ___ftadd (ARG)
             ___awtoft (ARG)
               ___ftpack
               ___wmul (ARG)
             ___ftpack (ARG)
             ___wmul (ARG)
           ___ftpack (ARG)
           ___ftpack (ARG)
           ___wmul (ARG)
         ___ftmul (ARG)
           ___awtoft (ARG)
             ___ftpack
             ___wmul (ARG)
           ___ftdiv (ARG)
             ___awtoft (ARG)
               ___ftpack
               ___wmul (ARG)
             ___ftadd (ARG)
               ___awtoft (ARG)
                 ___ftpack
                 ___wmul (ARG)
               ___ftpack (ARG)
               ___wmul (ARG)
             ___ftpack (ARG)
             ___ftpack (ARG)
             ___wmul (ARG)
           ___ftpack (ARG)
           ___wmul (ARG)
       ___wmul (ARG)
   _mensajeBienvenida
     _printf
       ___lwdiv
       ___lwmod
         ___lwdiv (ARG)
       _get_humedad (ARG)
       _get_intensidad_luminosa (ARG)
       _get_tempObjetivo (ARG)
         ___awdiv
           ___wmul (ARG)
       _get_temperatura_exterior (ARG)
       _get_temperatura_interior (ARG)
       _get_velocidad_ventilador (ARG)
         ___fttol
           ___ftdiv (ARG)
             ___awtoft (ARG)
               ___ftpack
               ___wmul (ARG)
             ___ftadd (ARG)
               ___awtoft (ARG)
                 ___ftpack
                 ___wmul (ARG)
               ___ftpack (ARG)
               ___wmul (ARG)
             ___ftpack (ARG)
             ___ftpack (ARG)
             ___wmul (ARG)
           ___ftmul (ARG)
             ___awtoft (ARG)
               ___ftpack
               ___wmul (ARG)
             ___ftdiv (ARG)
               ___awtoft (ARG)
                 ___ftpack
                 ___wmul (ARG)
               ___ftadd (ARG)
                 ___awtoft (ARG)
                   ___ftpack
                   ___wmul (ARG)
                 ___ftpack (ARG)
                 ___wmul (ARG)
               ___ftpack (ARG)
               ___ftpack (ARG)
               ___wmul (ARG)
             ___ftpack (ARG)
             ___wmul (ARG)
       _putch (ARG)
   _mostrarConsigna
     _get_tempObjetivo
       ___awdiv
         ___wmul (ARG)
     _printf
       ___lwdiv
       ___lwmod
         ___lwdiv (ARG)
       _get_humedad (ARG)
       _get_intensidad_luminosa (ARG)
       _get_tempObjetivo (ARG)
         ___awdiv
           ___wmul (ARG)
       _get_temperatura_exterior (ARG)
       _get_temperatura_interior (ARG)
       _get_velocidad_ventilador (ARG)
         ___fttol
           ___ftdiv (ARG)
             ___awtoft (ARG)
               ___ftpack
               ___wmul (ARG)
             ___ftadd (ARG)
               ___awtoft (ARG)
                 ___ftpack
                 ___wmul (ARG)
               ___ftpack (ARG)
               ___wmul (ARG)
             ___ftpack (ARG)
             ___ftpack (ARG)
             ___wmul (ARG)
           ___ftmul (ARG)
             ___awtoft (ARG)
               ___ftpack
               ___wmul (ARG)
             ___ftdiv (ARG)
               ___awtoft (ARG)
                 ___ftpack
                 ___wmul (ARG)
               ___ftadd (ARG)
                 ___awtoft (ARG)
                   ___ftpack
                   ___wmul (ARG)
                 ___ftpack (ARG)
                 ___wmul (ARG)
               ___ftpack (ARG)
               ___ftpack (ARG)
               ___wmul (ARG)
             ___ftpack (ARG)
             ___wmul (ARG)
       _putch (ARG)
   _mostrarDatos
     _get_humedad
     _get_intensidad_luminosa
     _get_temperatura_exterior
     _get_temperatura_interior
     _get_velocidad_ventilador
       ___fttol
         ___ftdiv (ARG)
           ___awtoft (ARG)
             ___ftpack
             ___wmul (ARG)
           ___ftadd (ARG)
             ___awtoft (ARG)
               ___ftpack
               ___wmul (ARG)
             ___ftpack (ARG)
             ___wmul (ARG)
           ___ftpack (ARG)
           ___ftpack (ARG)
           ___wmul (ARG)
         ___ftmul (ARG)
           ___awtoft (ARG)
             ___ftpack
             ___wmul (ARG)
           ___ftdiv (ARG)
             ___awtoft (ARG)
               ___ftpack
               ___wmul (ARG)
             ___ftadd (ARG)
               ___awtoft (ARG)
                 ___ftpack
                 ___wmul (ARG)
               ___ftpack (ARG)
               ___wmul (ARG)
             ___ftpack (ARG)
             ___ftpack (ARG)
             ___wmul (ARG)
           ___ftpack (ARG)
           ___wmul (ARG)
     _printf
       ___lwdiv
       ___lwmod
         ___lwdiv (ARG)
       _get_humedad (ARG)
       _get_intensidad_luminosa (ARG)
       _get_tempObjetivo (ARG)
         ___awdiv
           ___wmul (ARG)
       _get_temperatura_exterior (ARG)
       _get_temperatura_interior (ARG)
       _get_velocidad_ventilador (ARG)
         ___fttol
           ___ftdiv (ARG)
             ___awtoft (ARG)
               ___ftpack
               ___wmul (ARG)
             ___ftadd (ARG)
               ___awtoft (ARG)
                 ___ftpack
                 ___wmul (ARG)
               ___ftpack (ARG)
               ___wmul (ARG)
             ___ftpack (ARG)
             ___ftpack (ARG)
             ___wmul (ARG)
           ___ftmul (ARG)
             ___awtoft (ARG)
               ___ftpack
               ___wmul (ARG)
             ___ftdiv (ARG)
               ___awtoft (ARG)
                 ___ftpack
                 ___wmul (ARG)
               ___ftadd (ARG)
                 ___awtoft (ARG)
                   ___ftpack
                   ___wmul (ARG)
                 ___ftpack (ARG)
                 ___wmul (ARG)
               ___ftpack (ARG)
               ___ftpack (ARG)
               ___wmul (ARG)
             ___ftpack (ARG)
             ___wmul (ARG)
       _putch (ARG)
   _printf
     ___lwdiv
     ___lwmod
       ___lwdiv (ARG)
     _get_humedad (ARG)
     _get_intensidad_luminosa (ARG)
     _get_tempObjetivo (ARG)
       ___awdiv
         ___wmul (ARG)
     _get_temperatura_exterior (ARG)
     _get_temperatura_interior (ARG)
     _get_velocidad_ventilador (ARG)
       ___fttol
         ___ftdiv (ARG)
           ___awtoft (ARG)
             ___ftpack
             ___wmul (ARG)
           ___ftadd (ARG)
             ___awtoft (ARG)
               ___ftpack
               ___wmul (ARG)
             ___ftpack (ARG)
             ___wmul (ARG)
           ___ftpack (ARG)
           ___ftpack (ARG)
           ___wmul (ARG)
         ___ftmul (ARG)
           ___awtoft (ARG)
             ___ftpack
             ___wmul (ARG)
           ___ftdiv (ARG)
             ___awtoft (ARG)
               ___ftpack
               ___wmul (ARG)
             ___ftadd (ARG)
               ___awtoft (ARG)
                 ___ftpack
                 ___wmul (ARG)
               ___ftpack (ARG)
               ___wmul (ARG)
             ___ftpack (ARG)
             ___ftpack (ARG)
             ___wmul (ARG)
           ___ftpack (ARG)
           ___wmul (ARG)
     _putch (ARG)
   _read_humedad
     ___awtoft
       ___ftpack
       ___wmul (ARG)
     ___ftadd
       ___awtoft (ARG)
         ___ftpack
         ___wmul (ARG)
       ___ftpack (ARG)
       ___wmul (ARG)
     ___ftdiv
       ___awtoft (ARG)
         ___ftpack
         ___wmul (ARG)
       ___ftadd (ARG)
         ___awtoft (ARG)
           ___ftpack
           ___wmul (ARG)
         ___ftpack (ARG)
         ___wmul (ARG)
       ___ftpack (ARG)
       ___ftpack (ARG)
       ___wmul (ARG)
     ___fttol
       ___ftdiv (ARG)
         ___awtoft (ARG)
           ___ftpack
           ___wmul (ARG)
         ___ftadd (ARG)
           ___awtoft (ARG)
             ___ftpack
             ___wmul (ARG)
           ___ftpack (ARG)
           ___wmul (ARG)
         ___ftpack (ARG)
         ___ftpack (ARG)
         ___wmul (ARG)
       ___ftmul (ARG)
         ___awtoft (ARG)
           ___ftpack
           ___wmul (ARG)
         ___ftdiv (ARG)
           ___awtoft (ARG)
             ___ftpack
             ___wmul (ARG)
           ___ftadd (ARG)
             ___awtoft (ARG)
               ___ftpack
               ___wmul (ARG)
             ___ftpack (ARG)
             ___wmul (ARG)
           ___ftpack (ARG)
           ___ftpack (ARG)
           ___wmul (ARG)
         ___ftpack (ARG)
         ___wmul (ARG)
     ___wmul
     _printf
       ___lwdiv
       ___lwmod
         ___lwdiv (ARG)
       _get_humedad (ARG)
       _get_intensidad_luminosa (ARG)
       _get_tempObjetivo (ARG)
         ___awdiv
           ___wmul (ARG)
       _get_temperatura_exterior (ARG)
       _get_temperatura_interior (ARG)
       _get_velocidad_ventilador (ARG)
         ___fttol
           ___ftdiv (ARG)
             ___awtoft (ARG)
               ___ftpack
               ___wmul (ARG)
             ___ftadd (ARG)
               ___awtoft (ARG)
                 ___ftpack
                 ___wmul (ARG)
               ___ftpack (ARG)
               ___wmul (ARG)
             ___ftpack (ARG)
             ___ftpack (ARG)
             ___wmul (ARG)
           ___ftmul (ARG)
             ___awtoft (ARG)
               ___ftpack
               ___wmul (ARG)
             ___ftdiv (ARG)
               ___awtoft (ARG)
                 ___ftpack
                 ___wmul (ARG)
               ___ftadd (ARG)
                 ___awtoft (ARG)
                   ___ftpack
                   ___wmul (ARG)
                 ___ftpack (ARG)
                 ___wmul (ARG)
               ___ftpack (ARG)
               ___ftpack (ARG)
               ___wmul (ARG)
             ___ftpack (ARG)
             ___wmul (ARG)
       _putch (ARG)
   _read_intensidad_lumninosa
     ___awtoft
       ___ftpack
       ___wmul (ARG)
     ___ftdiv
       ___awtoft (ARG)
         ___ftpack
         ___wmul (ARG)
       ___ftadd (ARG)
         ___awtoft (ARG)
           ___ftpack
           ___wmul (ARG)
         ___ftpack (ARG)
         ___wmul (ARG)
       ___ftpack (ARG)
       ___ftpack (ARG)
       ___wmul (ARG)
     ___fttol
       ___ftdiv (ARG)
         ___awtoft (ARG)
           ___ftpack
           ___wmul (ARG)
         ___ftadd (ARG)
           ___awtoft (ARG)
             ___ftpack
             ___wmul (ARG)
           ___ftpack (ARG)
           ___wmul (ARG)
         ___ftpack (ARG)
         ___ftpack (ARG)
         ___wmul (ARG)
       ___ftmul (ARG)
         ___awtoft (ARG)
           ___ftpack
           ___wmul (ARG)
         ___ftdiv (ARG)
           ___awtoft (ARG)
             ___ftpack
             ___wmul (ARG)
           ___ftadd (ARG)
             ___awtoft (ARG)
               ___ftpack
               ___wmul (ARG)
             ___ftpack (ARG)
             ___wmul (ARG)
           ___ftpack (ARG)
           ___ftpack (ARG)
           ___wmul (ARG)
         ___ftpack (ARG)
         ___wmul (ARG)
     ___wmul
     _printf
       ___lwdiv
       ___lwmod
         ___lwdiv (ARG)
       _get_humedad (ARG)
       _get_intensidad_luminosa (ARG)
       _get_tempObjetivo (ARG)
         ___awdiv
           ___wmul (ARG)
       _get_temperatura_exterior (ARG)
       _get_temperatura_interior (ARG)
       _get_velocidad_ventilador (ARG)
         ___fttol
           ___ftdiv (ARG)
             ___awtoft (ARG)
               ___ftpack
               ___wmul (ARG)
             ___ftadd (ARG)
               ___awtoft (ARG)
                 ___ftpack
                 ___wmul (ARG)
               ___ftpack (ARG)
               ___wmul (ARG)
             ___ftpack (ARG)
             ___ftpack (ARG)
             ___wmul (ARG)
           ___ftmul (ARG)
             ___awtoft (ARG)
               ___ftpack
               ___wmul (ARG)
             ___ftdiv (ARG)
               ___awtoft (ARG)
                 ___ftpack
                 ___wmul (ARG)
               ___ftadd (ARG)
                 ___awtoft (ARG)
                   ___ftpack
                   ___wmul (ARG)
                 ___ftpack (ARG)
                 ___wmul (ARG)
               ___ftpack (ARG)
               ___ftpack (ARG)
               ___wmul (ARG)
             ___ftpack (ARG)
             ___wmul (ARG)
       _putch (ARG)
   _read_potenciometro
     ___awtoft
       ___ftpack
       ___wmul (ARG)
     ___ftdiv
       ___awtoft (ARG)
         ___ftpack
         ___wmul (ARG)
       ___ftadd (ARG)
         ___awtoft (ARG)
           ___ftpack
           ___wmul (ARG)
         ___ftpack (ARG)
         ___wmul (ARG)
       ___ftpack (ARG)
       ___ftpack (ARG)
       ___wmul (ARG)
     ___ftmul
       ___awtoft (ARG)
         ___ftpack
         ___wmul (ARG)
       ___ftdiv (ARG)
         ___awtoft (ARG)
           ___ftpack
           ___wmul (ARG)
         ___ftadd (ARG)
           ___awtoft (ARG)
             ___ftpack
             ___wmul (ARG)
           ___ftpack (ARG)
           ___wmul (ARG)
         ___ftpack (ARG)
         ___ftpack (ARG)
         ___wmul (ARG)
       ___ftpack (ARG)
       ___wmul (ARG)
     ___fttol
       ___ftdiv (ARG)
         ___awtoft (ARG)
           ___ftpack
           ___wmul (ARG)
         ___ftadd (ARG)
           ___awtoft (ARG)
             ___ftpack
             ___wmul (ARG)
           ___ftpack (ARG)
           ___wmul (ARG)
         ___ftpack (ARG)
         ___ftpack (ARG)
         ___wmul (ARG)
       ___ftmul (ARG)
         ___awtoft (ARG)
           ___ftpack
           ___wmul (ARG)
         ___ftdiv (ARG)
           ___awtoft (ARG)
             ___ftpack
             ___wmul (ARG)
           ___ftadd (ARG)
             ___awtoft (ARG)
               ___ftpack
               ___wmul (ARG)
             ___ftpack (ARG)
             ___wmul (ARG)
           ___ftpack (ARG)
           ___ftpack (ARG)
           ___wmul (ARG)
         ___ftpack (ARG)
         ___wmul (ARG)
     ___wmul
     _get_tempObjetivo
       ___awdiv
         ___wmul (ARG)
     _printf
       ___lwdiv
       ___lwmod
         ___lwdiv (ARG)
       _get_humedad (ARG)
       _get_intensidad_luminosa (ARG)
       _get_tempObjetivo (ARG)
         ___awdiv
           ___wmul (ARG)
       _get_temperatura_exterior (ARG)
       _get_temperatura_interior (ARG)
       _get_velocidad_ventilador (ARG)
         ___fttol
           ___ftdiv (ARG)
             ___awtoft (ARG)
               ___ftpack
               ___wmul (ARG)
             ___ftadd (ARG)
               ___awtoft (ARG)
                 ___ftpack
                 ___wmul (ARG)
               ___ftpack (ARG)
               ___wmul (ARG)
             ___ftpack (ARG)
             ___ftpack (ARG)
             ___wmul (ARG)
           ___ftmul (ARG)
             ___awtoft (ARG)
               ___ftpack
               ___wmul (ARG)
             ___ftdiv (ARG)
               ___awtoft (ARG)
                 ___ftpack
                 ___wmul (ARG)
               ___ftadd (ARG)
                 ___awtoft (ARG)
                   ___ftpack
                   ___wmul (ARG)
                 ___ftpack (ARG)
                 ___wmul (ARG)
               ___ftpack (ARG)
               ___ftpack (ARG)
               ___wmul (ARG)
             ___ftpack (ARG)
             ___wmul (ARG)
       _putch (ARG)
   _read_temperatura_exterior
     ___awtoft
       ___ftpack
       ___wmul (ARG)
     ___ftdiv
       ___awtoft (ARG)
         ___ftpack
         ___wmul (ARG)
       ___ftadd (ARG)
         ___awtoft (ARG)
           ___ftpack
           ___wmul (ARG)
         ___ftpack (ARG)
         ___wmul (ARG)
       ___ftpack (ARG)
       ___ftpack (ARG)
       ___wmul (ARG)
     ___ftsub
       ___awtoft (ARG)
         ___ftpack
         ___wmul (ARG)
       ___ftadd (ARG)
         ___awtoft (ARG)
           ___ftpack
           ___wmul (ARG)
         ___ftpack (ARG)
         ___wmul (ARG)
       ___ftdiv (ARG)
         ___awtoft (ARG)
           ___ftpack
           ___wmul (ARG)
         ___ftadd (ARG)
           ___awtoft (ARG)
             ___ftpack
             ___wmul (ARG)
           ___ftpack (ARG)
           ___wmul (ARG)
         ___ftpack (ARG)
         ___ftpack (ARG)
         ___wmul (ARG)
       ___wmul (ARG)
     ___fttol
       ___ftdiv (ARG)
         ___awtoft (ARG)
           ___ftpack
           ___wmul (ARG)
         ___ftadd (ARG)
           ___awtoft (ARG)
             ___ftpack
             ___wmul (ARG)
           ___ftpack (ARG)
           ___wmul (ARG)
         ___ftpack (ARG)
         ___ftpack (ARG)
         ___wmul (ARG)
       ___ftmul (ARG)
         ___awtoft (ARG)
           ___ftpack
           ___wmul (ARG)
         ___ftdiv (ARG)
           ___awtoft (ARG)
             ___ftpack
             ___wmul (ARG)
           ___ftadd (ARG)
             ___awtoft (ARG)
               ___ftpack
               ___wmul (ARG)
             ___ftpack (ARG)
             ___wmul (ARG)
           ___ftpack (ARG)
           ___ftpack (ARG)
           ___wmul (ARG)
         ___ftpack (ARG)
         ___wmul (ARG)
     ___wmul
     _printf
       ___lwdiv
       ___lwmod
         ___lwdiv (ARG)
       _get_humedad (ARG)
       _get_intensidad_luminosa (ARG)
       _get_tempObjetivo (ARG)
         ___awdiv
           ___wmul (ARG)
       _get_temperatura_exterior (ARG)
       _get_temperatura_interior (ARG)
       _get_velocidad_ventilador (ARG)
         ___fttol
           ___ftdiv (ARG)
             ___awtoft (ARG)
               ___ftpack
               ___wmul (ARG)
             ___ftadd (ARG)
               ___awtoft (ARG)
                 ___ftpack
                 ___wmul (ARG)
               ___ftpack (ARG)
               ___wmul (ARG)
             ___ftpack (ARG)
             ___ftpack (ARG)
             ___wmul (ARG)
           ___ftmul (ARG)
             ___awtoft (ARG)
               ___ftpack
               ___wmul (ARG)
             ___ftdiv (ARG)
               ___awtoft (ARG)
                 ___ftpack
                 ___wmul (ARG)
               ___ftadd (ARG)
                 ___awtoft (ARG)
                   ___ftpack
                   ___wmul (ARG)
                 ___ftpack (ARG)
                 ___wmul (ARG)
               ___ftpack (ARG)
               ___ftpack (ARG)
               ___wmul (ARG)
             ___ftpack (ARG)
             ___wmul (ARG)
       _putch (ARG)
   _read_temperatura_interior
     ___awtoft
       ___ftpack
       ___wmul (ARG)
     ___ftdiv
       ___awtoft (ARG)
         ___ftpack
         ___wmul (ARG)
       ___ftadd (ARG)
         ___awtoft (ARG)
           ___ftpack
           ___wmul (ARG)
         ___ftpack (ARG)
         ___wmul (ARG)
       ___ftpack (ARG)
       ___ftpack (ARG)
       ___wmul (ARG)
     ___ftmul
       ___awtoft (ARG)
         ___ftpack
         ___wmul (ARG)
       ___ftdiv (ARG)
         ___awtoft (ARG)
           ___ftpack
           ___wmul (ARG)
         ___ftadd (ARG)
           ___awtoft (ARG)
             ___ftpack
             ___wmul (ARG)
           ___ftpack (ARG)
           ___wmul (ARG)
         ___ftpack (ARG)
         ___ftpack (ARG)
         ___wmul (ARG)
       ___ftpack (ARG)
       ___wmul (ARG)
     ___fttol
       ___ftdiv (ARG)
         ___awtoft (ARG)
           ___ftpack
           ___wmul (ARG)
         ___ftadd (ARG)
           ___awtoft (ARG)
             ___ftpack
             ___wmul (ARG)
           ___ftpack (ARG)
           ___wmul (ARG)
         ___ftpack (ARG)
         ___ftpack (ARG)
         ___wmul (ARG)
       ___ftmul (ARG)
         ___awtoft (ARG)
           ___ftpack
           ___wmul (ARG)
         ___ftdiv (ARG)
           ___awtoft (ARG)
             ___ftpack
             ___wmul (ARG)
           ___ftadd (ARG)
             ___awtoft (ARG)
               ___ftpack
               ___wmul (ARG)
             ___ftpack (ARG)
             ___wmul (ARG)
           ___ftpack (ARG)
           ___ftpack (ARG)
           ___wmul (ARG)
         ___ftpack (ARG)
         ___wmul (ARG)
     ___wmul
   _set_up_Actuadores
     _init_PWM_CCP1
     _init_timer2
   _set_up_Sensores

 _Handler (ROOT)
   ___awmod

 Address spaces:
Name               Size   Autos  Total    Cost      Usage
BITCOMMON            E      0       0       0        0.0%
EEDATA             100      0       0       0        0.0%
NULL                 0      0       0       0        0.0%
CODE                 0      0       0       0        0.0%
COMMON               E      A       E       1      100.0%
BITSFR0              0      0       0       1        0.0%
SFR0                 0      0       0       1        0.0%
BITSFR1              0      0       0       2        0.0%
SFR1                 0      0       0       2        0.0%
STACK                0      0       0       2        0.0%
ABS                  0      0      9B       3        0.0%
BITBANK0            50      0       0       4        0.0%
BITSFR3              0      0       0       4        0.0%
SFR3                 0      0       0       4        0.0%
BANK0               50     4F      4F       5       98.8%
BITSFR2              0      0       0       5        0.0%
SFR2                 0      0       0       5        0.0%
BITBANK1            50      0       0       6        0.0%
BANK1               50     1C      3E       7       77.5%
BITBANK3            60      0       0       8        0.0%
BANK3               60      0       0       9        0.0%
BITBANK2            60      0       0      10        0.0%
BANK2               60      0       0      11        0.0%
DATA                 0      0      9B      12        0.0%


Microchip Technology PIC Macro Assembler V2.30 build 20200825195618 
Symbol Table                                                                                   Wed Dec 23 20:34:42 2020

                                 pc 0002                                  l45 0B1C  
                                l54 0EE7                                  l63 0CED  
                                l39 164A                                  l48 1516  
                                l72 0DDD                                  l57 153D  
                                l81 07FA                                  l66 1523  
                                l75 1530                                  l85 1681  
                                l88 155E                        ___awdiv@sign 002C  
                                fsr 0004                 ___wmul@multiplicand 0022  
                      ___ftadd@exp1 003A                        ___ftadd@exp2 0039  
        read_potenciometro@lecturaV 00D1                        _sumaLecturas 00B4  
                      ___ftadd@sign 0038                                 l213 14D0  
                               l142 14D4                                 l222 14FC  
                               l151 1575                                 l224 14FD  
                               l232 0829                                 l216 154B  
                               l145 14DA                                 l154 08A3  
                               l307 14E5                                 l139 15A9  
                               l227 14F0                                 l243 04B1  
                               l219 158D                                 l148 1509  
                               l229 14F1                                 l246 00FF  
                               l351 0FFD                                 l343 0F52  
                               l338 0F33                                 l700 0507  
                               l701 050C                                 l710 057D  
                               l463 0715                                 l650 17FF  
                               l467 15DD                                 l469 15F5  
                               l742 0C01                                 l727 00E1  
                               l736 16BB                                 l770 0990  
                               l675 0921                                 l763 09AD  
                               l669 161E                                 l686 08FD  
                               l687 0907                                 l679 08E2  
                               l759 15CE                                 l688 0921  
                               l696 05E7                                 l875 173D  
                               l699 04FD                                 l885 16F7  
                               _PR2 0092                                 _lum 00B6  
                               fsr0 0004                                 indf 0000  
                      ___awmod@sign 0076                        ___ftdiv@cntr 0045  
                      ___ftdiv@sign 004A                                l2000 16F8  
                              l2010 1710                                l2002 16FC  
                              l2020 1733                                l2012 1714  
                              l2004 1702                                l2100 06E9  
                              l2014 1725                                l2006 1705  
                              l2022 1739                                l2030 16C7  
                              l2110 1524                                l2102 1531  
                              l2200 009F                                l2120 1679  
                              l2016 172B                                l2008 170C  
                              l2040 16E6                                l2032 16CE  
                              l2210 00C6                                l2202 00AD  
                              l2122 167B                                l2114 164B  
                              l2018 172C                                l2042 16ED  
                              l2034 16D2                                l2026 16BC  
                              l2106 1517                                l2130 00E2  
                              l2204 00B7                                l2220 1699  
                              l2116 1654                                l2036 16D6  
                              l2028 16C4                                l2044 16F3  
                              l2060 05FE                                l2052 05E8  
                              l2140 14CE                                l2300 1648  
                              l2206 00B8                                l2230 16BA  
                              l2222 16A6                                l2214 1682  
                              l2126 154C                                l2118 1675  
                              l2038 16E0                                l2070 0640  
                              l2054 05EF                                l2150 14F2  
                              l2310 0A43                                l2142 14CF  
                              l2134 14C8                                l2302 1649  
                              l2160 15F6                                l2208 00C0  
                              l2224 16A8                                l2216 1688  
                              l2240 0B37                                l2048 150A  
                              l2072 0644                                l2064 0605  
                              l2056 05F5                                l2152 14FA  
                              l2400 0720                                l2320 0ACA  
                              l2312 0A4B                                l2304 0A3C  
                              l2136 14CC                                l2144 153E  
                              l2162 15F9                                l2226 16AA  
                              l2218 1695                                l2250 0B7D  
                              l2242 0B48                                l2234 0B1D  
                              l2090 0687                                l2082 064F  
                              l2074 0648                                l2066 0634  
                              l2058 05FC                                l2154 14E6  
                              l2410 0742                                l2402 0721  
                              l2330 0DEC                                l2322 0AFB  
                              l2314 0A4D                                l2306 0A3C  
                              l2138 14CD                                l2146 1541  
                              l2164 15FD                                l2180 004B  
                              l2172 0020                                l2228 16B8  
                              l2260 0B92                                l2252 0B7E  
                              l2236 0B30                                l2092 068D  
                              l2076 064D                                l2068 063C  
                              l2156 14EE                                l2420 07E4  
                              l2412 0789                                l2404 0729  
                              l2340 0E0B                                l2332 0DF2  
                              l2324 0DDE                                l2316 0A5F  
                              l2308 0A42                                l2148 1547  
                              l2430 159B                                l2422 158E  
                              l2166 1602                                l2190 006F  
                              l2174 0033                                l2270 0BBC  
                              l2262 0BA2                                l2254 0B84  
                              l2246 0B4F                                l2094 0694  
                              l2086 0677                                l2158 0800  
                              l2350 0C02                                l2414 078F  
                              l2406 072B                                l2342 0E14  
                              l2334 0DF3                                l2326 0DDE  
                              l2318 0A70                                l2440 15A8  
                              l2432 159E                                l2424 1595  
                              l2168 1604                                l2192 0081  
                              l2184 0052                                l2280 0BE6  
                              l2272 0BC0                                l2264 0BAA  
                              l2256 0B8A                                l2248 0B7C  
                              l2096 06D8                                l2088 0681  
                              l2360 0C13                                l2352 0C02  
                              l2416 07D6                                l2408 0739  
                              l2344 0E76                                l2336 0DFB  
                              l2328 0DE6                                l2600 0F35  
                              l2434 15A1                                l2426 1598  
                              l1810 08DA                                l1802 08B9  
                              l2194 0085                                l2186 0058  
                              l2178 003A                                l2274 0BD0  
                              l2266 0BB2                                l2258 0B8E  
                              l2098 06DE                                l2442 14FE  
                              l2370 0CD6                                l2362 0C21  
                              l2354 0C08                                l2418 07DE  
                              l2346 0EAF                                l2338 0DFD  
                              l2450 157F                                l2610 0F64  
                              l2602 0F45                                l2436 15A2  
                              l2428 159A                                l1820 0909  
                              l1812 08E9                                l1804 08C5  
                              l2196 008C                                l2188 005D  
                              l2276 0BD8                                l2268 0BB8  
                              l2460 0327                                l2444 155F  
                              l1900 04ED                                l2364 0C2A  
                              l2356 0C09                                l2380 0CFD  
                              l2372 0CEE                                l2284 15AA  
                              l2348 0ED0                                l2452 1583  
                              l2292 161F                                l2620 0F81  
                              l2612 0F66                                l2604 0F4C  
                              l2438 15A5                                l1822 091B  
                              l1814 08F3                                l1806 08CC  
                              l2198 0097                                l2278 0BE0  
                              l1830 15CF                                l2470 03A1  
                              l2462 032F                                l2446 082A  
                              l1910 050B                                l1902 04F3  
                              l2366 0C84                                l2358 0C11  
                              l2390 0D74                                l2382 0CFF  
                              l2374 0CEE                                l2286 15B3  
                              l2454 1588                                l2294 163E  
                              l2630 0FA2                                l2622 0F8C  
                              l2614 0F6B                                l2606 0F55  
                              l1824 0920                                l1816 08F7  
                              l1808 08D0                                l1840 15F1  
                              l1832 15D3                                l2480 0409  
                              l2472 03B7                                l2464 0367  
                              l2456 0305                                l1920 0530  
                              l1912 050D                                l1904 04FE  
                              l2368 0CB5                                l2392 0DA5  
                              l2384 0D0D                                l2376 0CF4  
                              l2288 15B5                                l2448 1576  
                              l2296 1644                                l2640 0FC0  
                              l2632 0FAA                                l2624 0F92  
                              l2616 0F71                                l2608 0F63  
                              l2490 14DB                                l1818 0901  
                              l1850 17A3                                l1826 14D4  
                              l1834 15D7                                l2482 0411  
                              l2474 03CC                                l2466 0385  
                              l2458 0316                                l1930 055C  
                              l1922 0539                                l1914 0513  
                              l1906 0502                                l2394 0DC6  
                              l2386 0D16                                l2378 0CF5  
                              l2298 1645                                l2650 0FD6  
                              l2642 0FC5                                l2634 0FAF  
                              l2626 0F97                                l2618 0F7C  
                              l2492 14DF                                l1860 17B4  
                              l1852 17A5                                l1844 1797  
                              l1828 14D8                                l1836 15E4  
                              l2484 0434                                l2476 03D2  
                              l2468 0392                                l1940 0591  
                              l1932 0562                                l1924 0545  
                              l1916 0520                                l1908 0506  
                              l2388 0D2D                                l2396 0716  
                              l2652 0FD8                                l2644 0FCB  
                              l2636 0FBD                                l2628 0F9D  
                              l2580 0EF6                                l2494 14E1  
                              l1870 17CC                                l1862 17BA  
                              l1854 17A9                                l1846 179A  
                              l1838 15EB                                l2486 04A8  
                              l2478 03D7                                l1950 05BA  
                              l1942 0595                                l1934 056B  
                              l1918 052A                                l1926 054C  
                              l2398 071A                                l2646 0FCF  
                              l2638 0FBE                                l2590 0F1C  
                              l2582 0EFB                                l2574 0EE8  
                              l1960 0935                                l1872 17DD  
                              l1864 17BD                                l1880 17F1  
                              l1856 17AE                                l1848 179E  
                              l1952 05CA                                l1944 05A5  
                              l1936 0577                                l1928 0552  
                              l2656 0FE4                                l2648 0FD5  
                              l2592 0F2A                                l2584 0F06  
                              l2576 0EEC                                l1794 08A4  
                              l1970 0957                                l1882 17F6  
                              l1874 17E3                                l1866 17C4  
                              l1858 17B2                                l1954 05CC  
                              l1946 05A6                                l1938 0581  
                              l1890 04D1                                l2658 0FF5  
                              l2594 0F2B                                l2586 0F0B  
                              l2578 0EF1                                l1796 08AB  
                              l1972 095E                                l1964 093E  
                              l1884 17FB                                l1876 17E4  
                              l1868 17C8                                l1948 05B6  
                              l1892 04D7                                l2596 0F2C  
                              l2588 0F11                                l1798 08B2  
                              l1990 0985                                l1982 096C  
                              l1974 0960                                l1966 0950  
                              l1958 0922                                l1878 17EB  
                              l1894 04E1                                l2598 0F2D  
       __size_of_read_potenciometro 00E5                                l1992 0995  
                              l1976 0964                                l1984 097E  
                              l1968 0951                                l1888 04B2  
                              l1994 099A                                l1898 04E8  
                              l1996 09A5                                STR_1 025E  
                              STR_2 02DD                                STR_3 027A  
                              STR_4 02A8                                STR_5 01D1  
                              STR_6 011C                                STR_7 015D  
                              STR_8 02FA                                STR_9 020A  
                              u2000 096B                                u2001 096A  
                              u2020 097D                                u2021 097C  
                              u2030 0984                                u2110 1725  
                              u2031 0983                                u2015 096D  
                              u2111 1724                                u2200 05F5  
                              u2105 1715                                u2201 05F4  
                              u2050 0995                                u2130 1739  
                              u2210 0644                                u2051 0994  
                              u2131 1738                                u2115 1721  
                              u2211 0643                                u2300 15FD  
                              u2060 099A                                u2140 16C4  
                              u2220 0676                                u2301 15FC  
                              u2061 0999                                u2045 0987  
                              u2125 172D                                u2141 16C3  
                              u2221 0675                                u1510 08E8  
                              u2310 0033                                u2070 1702  
                              u2230 0681                                u1511 08E7  
                              u2311 0032                                u2071 1701  
                              u2231 0680                                u2320 004B  
                              u2400 1699                                u2160 16D6  
                              u2240 0687                                u1505 08DB  
                              u2321 004A                                u2401 1698  
                              u2161 16D5                                u2241 0686  
                              u2225 0672                                u1530 08F7  
                              u2330 0068                                u2410 16B8  
                              u2090 1714                                u2170 16E0  
                              u2250 06E9                                u1531 08F6  
                              u2411 16B7                                u2091 1713  
                              u2171 16DF                                u2155 16C8  
                              u2251 06E8                                u1540 08FD  
                              u1460 08AB                                u2340 007A  
                              u2500 0BB8                                u2420 0B30  
                              u2260 0715                                u1620 15F1  
                              u1541 08FC                                u1525 08EC  
                              u1461 08AA                                u2501 0BB7  
                              u2421 0B2F                                u2085 1706  
                              u2261 0714                                u1621 15F0  
                              u1605 15DE                                u1550 0901  
                              u1470 08B2                                u2510 0BC0  
                              u2430 0B48                                u1710 17F1  
                              u1630 179E                                u2270 1654  
                              u2190 16F3                                u1551 0900  
                              u1471 08B1                                u2335 0064  
                              u2415 16B4                                u2511 0BBF  
                              u2431 0B47                                u1711 17F0  
                              u1631 179D                                u2271 1653  
                              u2191 16F2                                u2175 16DC  
                              u1615 15E5                                u1560 0912  
                              u2360 00AD                                u2440 0B5F  
                              u1720 17F6                                u1640 17A9  
                              u2280 14FA                                u1800 050B  
                              u2600 0CFD                                u2361 00AC  
                              u2345 0076                                u2521 0BC9  
                              u1721 17F5                                u1705 17E5  
                              u1641 17A8                                u2185 16E7  
                              u2281 14F9                                u1801 050A  
                              u2601 0CFC                                u1570 0920  
                              u1490 08CB                                u2522 0BD0  
                              u2450 0B71                                u1650 17BA  
                              u2290 14EE                                u1810 0520  
                              u1730 04D1                                u2610 0729  
                              u1571 091F                                u1491 08CA  
                              u2355 0098                                u1651 17B9  
                              u2291 14ED                                u1811 051F  
                              u1731 04D0                                u2611 0728  
                              u2380 00C6                                u2460 0B92  
                              u1580 14D8                                u2620 0385  
                              u1900 056A                                u1740 04D7  
                              u1565 090E                                u1485 08BE  
                              u2381 00C5                                u2365 00A9  
                              u2461 0B91                                u2445 0B5B  
                              u1581 14D7                                u2621 0384  
                              u1901 0569                                u1741 04D6  
                              u2390 1688                                u2550 0BE6  
                              u1670 17CC                                u1590 15D7  
                              u2630 03A1                                u1830 0530  
                              u1750 04E1                                u2375 00B9  
                              u2391 1687                                u2551 0BE5  
                              u2535 0BD1                                u2471 0B9B  
                              u2455 0B6D                                u1671 17CB  
                              u1591 15D6                                u2631 03A0  
                              u1831 052F                                u1751 04E0  
                              u2472 0BA2                                u2640 03D2  
                              u1920 057D                                u1840 0538  
                              u1760 04ED                                u2560 15B3  
                              u2545 0BD9                                u1665 17BE  
                              u2641 03D1                                u1921 057C  
                              u1841 0537                                u1825 0521  
                              u1761 04EC                                u2561 15B2  
                              u1690 17DD                                u2650 0409  
                              u1930 0581                                u1770 04F3  
                              u2570 0A4B                                u1691 17DC  
                              u2651 0408                                u2635 039D  
                              u1931 0580                                u1915 056C  
                              u1771 04F2                                u2571 0A4A  
                              u2660 04A8                                u1940 0595  
                              u1860 054B                                u1780 04FD  
                              u2580 0DFB                                u2900 0FFD  
                              u2485 0BA3                                u1685 17CD  
                              u2661 04A7                                u1941 0594  
                              u1861 054A                                u1781 04FC  
                              u2581 0DFA                                u2901 0FFC  
                              u1870 0552                                u1790 0506  
                              u2590 0C11                                u2495 0BAB  
                              u1695 17D9                                u1951 05AF  
                              u1871 0551                                u1855 053A  
                              u1791 0505                                u2591 0C10  
                              u1960 05BA                                u1952 05B6  
                              u1961 05B9                                u1970 0935  
                              u1890 0562                                u1971 0934  
                              u1891 0561                                u1980 0949  
                              u1885 0553                                u2917 0F24  
                              u1990 0964                                u2870 0F4C  
                              u1991 0963                                u2871 0F4B  
                              u2880 0F52                                u1985 0945  
                              u2881 0F51                                u2890 0FAA  
                              u2891 0FA9                                _TMR0 0001  
                              _TXIF 0064           _read_intensidad_lumninosa 0CEE  
                              _cont 007A                                _main 0EE8  
                      ___ftpack@arg 0020                        ___ftpack@exp 0023  
                              _vent 00A6                                btemp 007E  
                              start 000C  __size_of_read_temperatura_interior 00E1  
                   __end_of_Handler 0A3C  __size_of_read_temperatura_exterior 010A  
                      ___ftmul@cntr 0059                        ___ftmul@sign 005A  
                      ___fttol@exp1 0068                        ___fttol@lval 0064  
                   _set_up_Sensores 161F                               ?_main 0070  
                   __end_of___awdiv 1800                     __end_of___ftadd 05E8  
                             STR_10 0226                               STR_11 02CD  
                             STR_12 0242                               STR_13 01B1  
                             STR_14 02BB                               STR_15 02EC  
                             STR_16 01EE                               STR_17 0293  
                             STR_18 018E                     __end_of___awmod 1797  
                   __end_of___ftdiv 00E2                     __end_of___ftmul 0C02  
                   ___awdiv@divisor 0026                     __end_of___ftsub 15CF  
                   __end_of___fttol 09AE                     __end_of___lwdiv 173E  
                             i1l320 0A26                               i1l330 0A35  
                             i1l325 0A0D                               i1l327 0A25  
                   __end_of___lwmod 16F8                               i1l663 1796  
                   ___awdiv@counter 002B                   ??_mostrarConsigna 006F  
                             _SPBRG 0099                               _TRISC 0087  
                             _TXREG 0019                        ?_init_timer0 0070  
                      ?_init_timer2 0070                      _set_Calefactor 14E6  
           __size_of_set_Ventilador 002A                       ___awtoft@sign 002D  
                   __end_of_dpowers 011C              __size_of_init_PWM_CCP1 0009  
                     ___ftpack@sign 0024                               _putch 14D1  
                             pclath 000A                               status 0003  
            ?_get_lastPotenciometro 0020                               wtemp0 007E  
                 _logica_Actuadores 0305                   ?_get_tempObjetivo 002F  
                   __initialization 000F                  ?_logica_Actuadores 0070  
                 _lastPotenciometro 00A9                  ??_get_tempObjetivo 0031  
                      __end_of_main 1000   __end_of_read_temperatura_interior 0B1D  
 __end_of_read_temperatura_exterior 0EE8                 ??_logica_Actuadores 006F  
                            ??_main 00DB                       ___fttol@sign1 0063  
            __end_of_set_Calefactor 14F2                              _ADRESH 001E  
                            _ADRESL 009E                              _CCPR1L 0015  
                  ___awdiv@dividend 0028                    __end_of___awtoft 161F  
                            ?_putch 0070                    __end_of___ftpack 0922  
                            i1l2500 1743                              i1l2510 1759  
                            i1l2502 1748                              i1l2520 1775  
                            i1l2512 175C                              i1l2504 174A  
                            i1l2530 1792                              i1l2522 177B  
                            i1l2514 1763                              i1l2506 174E  
                            i1l2524 1782                              i1l2516 1767  
                            i1l2508 1753                              i1l2540 09BF  
                            i1l2518 176B                              i1l2526 1788  
                            i1l2550 09E3                              i1l2542 09C3  
                            i1l2534 09AE                              i1l2528 178D  
                            i1l2560 0A04                              i1l2552 09E4  
                            i1l2544 09D6                              i1l2536 09B2  
                            i1l2570 0A2C                              i1l2562 0A0F  
                            i1l2554 09EB                              i1l2546 09DC  
                            i1l2538 09B6                              i1l2572 0A32  
                            i1l2564 0A18                              i1l2556 09F2  
                            i1l2548 09E2                              i1l2558 09FB  
                            i1l2566 0A1D                              i1l2496 173E  
                            i1l2568 0A23                              i1l2498 173F  
                            u270_25 175D                              u271_20 176B  
                            u271_21 176A                              u272_20 1775  
                            u280_20 09EB                              u272_21 1774  
                            u280_21 09EA                              u272_25 1771  
                            u281_20 09F2                              u281_21 09F1  
                            u273_25 177C                              u274_20 1788  
                            u282_20 09FB                              u274_21 1787  
                            u282_21 09FA                              u275_20 178D  
                            u267_20 1743                              u283_20 0A04  
                            u275_21 178C                              u267_21 1742  
                            u283_21 0A03                              u268_20 174E  
                            u284_20 0A0D                              u276_20 09B2  
                            u268_21 174D                              u284_21 0A0C  
                            u276_21 09B1                              u269_20 1759  
                            u285_20 0A18                              u277_20 09BF  
                            u269_21 1758                              u285_21 0A17  
                            u277_21 09BE                              u286_20 0A2C  
                            u278_20 09D6                              u286_21 0A2B  
                            u278_21 09D5                              u279_20 09DC  
                            u279_21 09DB                              _OSCCON 008F  
         __end_of_logica_Actuadores 04B2                           ??_Handler 0077  
                            _SPBRGH 009A                   _set_up_Actuadores 1576  
                ?_set_up_Actuadores 0070             __end_of_set_up_Sensores 164B  
                            ___ftge 1682                       _init_PWM_CCP1 14C8  
                     ?_read_humedad 0070                              ___wmul 15CF  
                         ??___awdiv 002A                           ??___ftadd 0034  
                         ??___awmod 0074                           ??___ftdiv 0041  
                         ??___ftmul 0051                           ??___ftsub 0051  
                         ??___fttol 005F                __size_of_get_humedad 000D  
                         ??___lwdiv 0024                 ??_set_up_Actuadores 0020  
                         ??___lwmod 002C      _read_intensidad_lumninosa$1408 00D0  
                  ___awdiv@quotient 002D                     ___awmod@divisor 0070  
          __end_of_set_Refrigerador 14FE                     ___awmod@counter 0075  
                            _printf 05E8               ___ftmul@f3_as_product 0056  
                   ?_set_Calefactor 0020                              saved_w 007E  
                            putch@c 0020    read_temperatura_interior@lectura 00C8  
          ?_get_intensidad_luminosa 0020           __end_of_set_up_Actuadores 158E  
           __end_of__initialization 001C                          ___ftadd@f1 002E  
                        ___ftadd@f2 0031                          ___ftge@ff1 002E  
                        ___ftge@ff2 0031            _get_velocidad_ventilador 00E2  
          _get_temperatura_interior 150A                          ___ftdiv@f1 003E  
                        ___ftdiv@f2 003B                          ___ftdiv@f3 0046  
          _get_temperatura_exterior 1531                          ___awtoft@c 0028  
                        ___ftmul@f1 004B                          ___ftmul@f2 004E  
                        ___ftsub@f1 004E                          ___ftsub@f2 004B  
                        ___fttol@f1 005B                      ?_init_PWM_CCP1 0070  
                    ??_read_humedad 00CB                      __pcstackCOMMON 0070  
__size_of_read_intensidad_lumninosa 00F0                       __end_of_putch 14DB  
                    _OPTION_REGbits 0081                      _set_Ventilador 0800  
              __size_of_init_timer0 000B                __size_of_init_timer2 000E  
                           ??_putch 0020                          __pbssBANK1 00A0  
        __size_of_logica_Actuadores 01AD                   _mensajeBienvenida 14FE  
                ?_mensajeBienvenida 0070                  __size_of_init_uart 001C  
                        __pmaintext 0EE8                     _mostrarConsigna 155F  
                        _diferencia 00C0                             ?___ftge 002E  
                  ?_set_up_Sensores 0070                             ?___wmul 0020  
               ??_mensajeBienvenida 006F                          __pintentry 0004  
 __end_of_read_intensidad_lumninosa 0DDE                           ?___awtoft 0028  
                         ?___ftpack 0020                             ?_printf 006B  
            __end_of_set_Ventilador 082A          __end_of_read_potenciometro 07FB  
           ??_get_lastPotenciometro 0023           __end_of_mensajeBienvenida 150A  
                        __stringtab 0100          __size_of_set_up_Actuadores 0018  
                           _Handler 09AE                     ??_init_PWM_CCP1 0020  
                   __size_of___ftge 003A                             ___awdiv 1797  
                           ___ftadd 04B2                             ___awmod 173E  
                           ___ftdiv 0020                     __size_of___wmul 0027  
                           ___ftmul 0B1D                             ___ftsub 15AA  
                           ___fttol 0922                             ___lwdiv 16F8  
                           ___lwmod 16BC                          ??___awtoft 002B  
                        ??___ftpack 0025                             __ptext1 161F  
                           __ptext2 1576                             __ptext3 153E  
                           __ptext4 14C8                             __ptext5 0A3C  
                           __ptext6 0DDE                             __ptext7 15AA  
                           __ptext8 0716                             __ptext9 0CEE  
                   __size_of_printf 012E                     ?_set_Ventilador 0069  
                           _dpowers 0112                           _T2CONbits 0012  
         __size_of_get_tempObjetivo 0037                             _humedad 00B8  
                 __end_of_init_uart 15AA                    ___awmod@dividend 0072  
                           _tempObj 00AC                             _tempInt 00AE  
                           _tempint 00BC                             _tempext 00BA  
              __end_of_read_humedad 0CEE                             clrloop0 14C1  
              end_of_initialization 001C                       ?_mostrarDatos 0070  
           __end_of_mostrarConsigna 1576                           _RCSTAbits 0018  
                           printf@c 00CA                             printf@f 006B  
 read_temperatura_interior@lecturaV 00C2                    ??_set_Calefactor 0022  
                      __pstringtext 0100          ?_read_temperatura_interior 0070  
        ?_read_temperatura_exterior 0070                           _PORTBbits 0006  
                         _PORTCbits 0007                   ?_set_Refrigerador 0020  
                _estadoInterrupcion 00BE                  ??_set_Refrigerador 0022  
                         _TRISBbits 0086                           _TRISCbits 0087  
                set_Refrigerador@on 0020          ??_get_velocidad_ventilador 006B  
        ??_get_temperatura_interior 0022          ??_get_temperatura_exterior 0022  
        __size_of_mensajeBienvenida 000C                      ??_mostrarDatos 006F  
                       _CCP1CONbits 0017                         ___ftdiv@exp 0049  
                         _TXSTAbits 0098                       ??_get_humedad 0022  
                       ___ftmul@exp 0055    __size_of_get_intensidad_luminosa 000D  
                 _read_humedad$1407 00D0                      __end_of___ftge 16BC  
                    __end_of___wmul 15F6                         _BAUDCTLbits 0187  
                    __end_of_printf 0716   read_temperatura_exterior@lecturaV 00D3  
               start_initialization 000F                read_humedad@lecturaV 00CD  
       read_temperatura_exterior@V0 00CD         read_temperatura_exterior@Tc 00D0  
                  ?_mostrarConsigna 0070      _read_temperatura_interior$1405 00C5  
                          ??___ftge 0034                            ??___wmul 0024  
                      _estadoActual 00BF                 __end_of_get_humedad 1524  
                          ??_printf 00C2               __size_of_read_humedad 00EC  
                 __size_of___awtoft 0029                   __size_of___ftpack 007E  
                  _get_tempObjetivo 164B                       ??_init_timer0 0020  
                     ??_init_timer2 0020                         __pbssCOMMON 007A  
                         ___latbits 0002                       __pcstackBANK0 0020  
                     __pcstackBANK1 00C2    read_intensidad_lumninosa@lectura 00D3  
    __size_of_get_lastPotenciometro 0013       __end_of_get_lastPotenciometro 155F  
                          ?_Handler 0070      _read_temperatura_exterior$1406 00D6  
                _read_potenciometro 0716                    ___lwdiv@dividend 0022  
                          ?___awdiv 0026                            ?___ftadd 002E  
                          ?___awmod 0070                        _read_humedad 0C02  
                          ?___ftdiv 003B                            ?___ftmul 004B  
                          ?___ftsub 004B                            ?___fttol 005B  
               ?_read_potenciometro 0070                            ?___lwdiv 0020  
                          ?___lwmod 0028                    ??_set_Ventilador 006B  
              __end_of_mostrarDatos 08A4          ?_read_intensidad_lumninosa 0070  
          __size_of_set_up_Sensores 002C               read_potenciometro@aux 00CD  
  __end_of_get_velocidad_ventilador 0100    __end_of_get_temperatura_interior 1517  
  __end_of_get_temperatura_exterior 153E                            _ADCready 00B0  
                  ___lwdiv@quotient 0025                ??_read_potenciometro 00CB  
                         _init_uart 158E                      __size_of_putch 000A  
               __end_of_init_timer0 14E6                 __end_of_init_timer2 154C  
         read_potenciometro@lectura 00CF                   interrupt_function 0004  
                    ___wmul@product 0024                           clear_ram0 14C0  
                          _PIE1bits 008C             _get_intensidad_luminosa 1524  
                          _PIR1bits 000C                         _get_humedad 1517  
             __end_of_init_PWM_CCP1 14D1         ??_read_temperatura_interior 0069  
       ??_read_temperatura_exterior 00CB                          _ADCON0bits 001F  
                       __stringbase 0112                          _ADCON1bits 009F  
                 ___wmul@multiplier 0020                          printf@flag 00C6  
                        printf@prec 00C7                      _numeroLecturas 00B2  
                        ?_init_uart 0070    read_temperatura_exterior@lectura 00D9  
          set_Ventilador@intensidad 0069           __size_of_set_Refrigerador 000C  
               read_humedad@lectura 00D3                    __size_of_Handler 008E  
                  __size_of___awdiv 0069                    __size_of___ftadd 0136  
                  __size_of___awmod 0059                    __size_of___ftdiv 00C2  
                  __size_of___ftmul 00E5                    __size_of___ftsub 0025  
                  __size_of___fttol 008C                    __size_of___lwdiv 0046  
                  __size_of___lwmod 003C                            ___awtoft 15F6  
                          ___ftpack 08A4                  __end_of__stringtab 0112  
                        _ANSELHbits 0189                         _errorMaximo 00A3  
                       _init_timer0 14DB                         _init_timer2 153E  
                   ___lwdiv@divisor 0020                     ___lwdiv@counter 0027  
                          __ptext10 0C02                            __ptext11 04B2  
                          __ptext20 0800                            __ptext12 082A  
                          __ptext21 15CF                            __ptext13 00E2  
                          __ptext30 1797                            __ptext22 14F2  
                          __ptext14 1531                            __ptext31 154C  
                          __ptext23 14E6                            __ptext15 1524  
                          __ptext40 09AE                            __ptext32 0922  
                          __ptext24 05E8                            __ptext16 1517  
                          __ptext41 173E                            __ptext33 0B1D  
                          __ptext25 14D1                            __ptext17 155F  
                          __ptext34 1682                            __ptext26 16BC  
                          __ptext18 14FE                            __ptext35 0020  
                          __ptext27 16F8                            __ptext19 0305  
                          __ptext36 15F6                            __ptext28 150A  
                          __ptext37 08A4                            __ptext29 164B  
                          __ptext38 158E                            __ptext39 14DB  
                 ??_set_up_Sensores 0020           _read_temperatura_interior 0A3C  
         _read_temperatura_exterior 0DDE                        _tempObjetivo 007C  
                     __size_of_main 0118           ??_get_intensidad_luminosa 0022  
          __end_of_get_tempObjetivo 1682               __size_of_mostrarDatos 007A  
 __size_of_get_velocidad_ventilador 001E   __size_of_get_temperatura_interior 000D  
         ?_get_velocidad_ventilador 0069           ?_get_temperatura_interior 0020  
 __size_of_get_temperatura_exterior 000D           ?_get_temperatura_exterior 0020  
                         printf@val 00C8   read_intensidad_lumninosa@lecturaV 00CD  
                        _INTCONbits 000B             __size_of_set_Calefactor 000C  
                       ??_init_uart 0020                            intlevel1 0000  
                      _mostrarDatos 082A                    ___lwmod@dividend 002A  
                     _potenciometro 00A0                           stringcode 010A  
                          printf@ap 00C5            __size_of_mostrarConsigna 0017  
                  set_Calefactor@on 0020     __end_of_get_intensidad_luminosa 1531  
       ??_read_intensidad_lumninosa 00CB                     ___lwmod@divisor 0028  
                   ___lwmod@counter 002D                            stringtab 0100  
                  _set_Refrigerador 14F2               _get_lastPotenciometro 154C  
                      ?_get_humedad 0020  
